(lp0
(lp1
S'clearAllInstructions'
p2
aF0.007
aI0
aa(lp3
(dp4
S'args'
p5
(dp6
S'color'
p7
S'rgba(0,0,255,.1)'
p8
ssS'func'
p9
S'changeBackgroundColor'
p10
saF0.0
aF0.007
aa(lp11
(dp12
g5
(dp13
S'divID'
p14
S'automatic'
p15
sg7
S'rgba(0,0,0,1)'
p16
sS'text'
p17
S'Welcome To'
p18
sS'top'
p19
I150
sS'fadeTime'
p20
I2
sS'fontSize'
p21
I300
sS'textAlign'
p22
S'center'
p23
sS'left'
p24
I0
ssg9
S'placeText'
p25
saF0.5559999999999999
aF0.007
aa(lp26
(dp27
g5
(dp28
g14
S'automatic2'
p29
sg7
g16
sg17
S'The Economic Science'
p30
sg19
I625
sg20
I2
sg21
I300
sg22
g23
sg24
I0
ssg9
g25
saF0.18600000000000005
aF0.563
aa(lp31
(dp32
g5
(dp33
g14
S'automatic3'
p34
sg7
g16
sg17
S'Laboratory'
p35
sg19
I700
sg20
I2
sg21
I300
sg22
g23
sg24
I0
ssg9
g25
saF1.112
aF0.749
aa(lp36
(dp37
g5
(dp38
S'functionName'
p39
S'drawLogoESL'
p40
ssg9
S'runJavascriptFunction'
p41
saF9.857999999999999
aF1.861
aa(lp42
(dp43
g5
(dp44
g39
S'clearAllInstructions'
p45
ssg9
g41
saF0.0
aF11.719
aa(lp46
(dp47
g5
(dp48
g7
S'rgba(0,255,0,.1)'
p49
ssg9
g10
saF0.0
aF11.719
aa(lp50
(dp51
g5
(dp52
g14
S'instructionsSlideTitle'
p53
sg7
S'rgba(0,127,0,1)'
p54
sg17
S'Welcome'
p55
sg19
I50
sg20
I1
sg21
I400
sg22
g23
sg24
I0
ssg9
g25
saF3.021000000000001
aF11.719
aa(lp56
(dp57
g5
(dp58
g14
S'instructionsSlideEntry1'
p59
sg7
g16
sg17
S'Economics Experiment.'
p60
sg19
I200
sg20
I2
sg21
I300
sg22
g23
sg24
I0
ssg9
g25
saF5.363000000000001
aF14.74
aa(lp61
(dp62
g5
(dp63
g14
S'instructionsSlideEntry2'
p64
sg7
g16
sg17
S'Will get paid in cash at the end of the experiment.'
p65
sg19
I350
sg20
I2
sg21
I300
sg22
g23
sg24
I0
ssg9
g25
saF8.552
aF20.103
aa(lp66
(dp67
g5
(dp68
g14
S'instructionsSlideEntry3'
p69
sg7
g16
sg17
S'Please remain silent.'
p70
sg19
I500
sg20
I2
sg21
I300
sg22
g23
sg24
I0
ssg9
g25
saF8.082999999999998
aF28.655
aa(lp71
(dp72
g5
(dp73
g14
S'instructionsSlideEntry4'
p74
sg7
g16
sg17
S'Please raise your hand for help.'
p75
sg19
I650
sg20
I2
sg21
I300
sg22
g23
sg24
I0
ssg9
g25
saF4.131
aF36.738
aa(lp76
(dp77
g5
(dp78
g39
g45
ssg9
g41
saF0.0
aF40.869
aa(lp79
(dp80
g5
(dp81
g7
S'rgba(255,0,0,.1)'
p82
ssg9
g10
saF0.0
aF40.869
aa(lp83
(dp84
g5
(dp85
g14
g53
sg7
S'rgba(127,0,0,1)'
p86
sg17
g55
sg19
I50
sg20
I1
sg21
I400
sg22
g23
sg24
I0
ssg9
g25
saF1.5080000000000027
aF40.869
aa(lp87
(dp88
g5
(dp89
g14
S'instructionsSlideEntry1'
p90
sg7
g16
sg17
S'Do not talk, laugh or exclaim out loud.'
p91
sg19
I200
sg20
I2
sg21
I300
sg22
g23
sg24
I0
ssg9
g25
saF3.283999999999999
aF42.377
aa(lp92
(dp93
g5
(dp94
g14
S'instructionsSlideEntry2'
p95
sg7
g16
sg17
S'Keep your eyes on your screen only.'
p96
sg19
I350
sg20
I2
sg21
I300
sg22
g23
sg24
I0
ssg9
g25
saF4.042000000000002
aF45.661
aa(lp97
(dp98
g5
(dp99
g14
S'instructionsSlideEntry3'
p100
sg7
g16
sg17
S'Turn off cell phones, etc. and put them away.'
p101
sg19
I500
sg20
I2
sg21
I300
sg22
g23
sg24
I0
ssg9
g25
saF12.043999999999997
aF49.703
aa(lp102
(dp103
g5
(dp104
g14
S'instructionsSlideEntry4'
p105
sg7
g16
sg17
S'We appreciate your cooperation.'
p106
sg19
I650
sg20
I2
sg21
I300
sg22
g23
sg24
I0
ssg9
g25
saF4.275000000000006
aF61.747
aa(lp107
(dp108
g5
(dp109
g39
g45
ssg9
g41
saF0.0
aF66.022
aa(lp110
(dp111
g5
(dp112
g7
S'rgba(0,0,255,.1)'
p113
ssg9
g10
saF0.0
aF66.022
aa(lp114
(dp115
g5
(dp116
g14
g53
sg7
S'rgba(0,0,127,1)'
p117
sg17
S'Agenda'
p118
sg19
I50
sg20
I1
sg21
I400
sg22
g23
sg24
I0
ssg9
g25
saF1.2459999999999951
aF66.022
aa(lp119
(dp120
g5
(dp121
g14
S'instructionsSlideEntry1'
p122
sg7
g16
sg17
S'1. Instructions'
p123
sg19
I175
sg20
I2
sg21
I300
sg22
g24
sg24
I200
ssg9
g25
saF4.2690000000000055
aF67.268
aa(lp124
(dp125
g5
(dp126
g14
S'instructionsSlideEntry2'
p127
sg7
g16
sg17
S'2. Quiz'
p128
sg19
I275
sg20
I2
sg21
I300
sg22
g24
sg24
I200
ssg9
g25
saF17.236999999999995
aF71.537
aa(lp129
(dp130
g5
(dp131
g14
S'instructionsSlideEntry3'
p132
sg7
g16
sg17
S'3. Experiment'
p133
sg19
I375
sg20
I2
sg21
I300
sg22
g24
sg24
I200
ssg9
g25
saF4.1569999999999965
aF88.774
aa(lp134
(dp135
g5
(dp136
g14
S'instructionsSlideEntry4'
p137
sg7
g16
sg17
S'4. Three Additional Tasks'
p138
sg19
I475
sg20
I2
sg21
I300
sg22
g24
sg24
I200
ssg9
g25
saF4.942999999999998
aF92.931
aa(lp139
(dp140
g5
(dp141
g14
S'instructionsSlideEntry5'
p142
sg7
g16
sg17
S'5. Survey'
p143
sg19
I575
sg20
I2
sg21
I300
sg22
g24
sg24
I200
ssg9
g25
saF11.233000000000004
aF97.874
aa(lp144
(dp145
g5
(dp146
g14
S'instructionsSlideEntry6'
p147
sg7
g16
sg17
S'6. Payment'
p148
sg19
I675
sg20
I2
sg21
I300
sg22
g24
sg24
I200
ssg9
g25
saF9.570000000000007
aF109.107
aa(lp149
(dp150
g5
(dp151
g39
g45
ssg9
g41
saF0.0
aF118.677
aa(lp152
(dp153
g5
(dp154
g7
S'rgba(255,0,0,.1)'
p155
ssg9
g10
saF0.0
aF118.677
aa(lp156
(dp157
g5
(dp158
g14
g53
sg7
S'rgba(127,0,0,1)'
p159
sg17
S'Experiment Overview'
p160
sg19
I50
sg20
I1
sg21
I400
sg22
g23
sg24
I0
ssg9
g25
saF4.244
aF118.677
aa(lp161
(dp162
g5
(dp163
g14
S'instructionsSlideEntry1'
p164
sg7
g16
sg17
S'Matched in pairs.'
p165
sg19
I200
sg20
I2
sg21
I300
sg22
g23
sg24
I0
ssg9
g25
saF5.33799999999998
aF122.921
aa(lp166
(dp167
g5
(dp168
g14
S'instructionsSlideEntry2'
p169
sg7
g16
sg17
S'Your choice affects your payoff.'
p170
sg19
I350
sg20
I2
sg21
I300
sg22
g23
sg24
I0
ssg9
g25
saF1.997000000000014
aF128.259
aa(lp171
(dp172
g5
(dp173
g14
S'instructionsSlideEntry3'
p174
sg7
g16
sg17
S'Your choice affects their payoff.'
p175
sg19
I500
sg20
I2
sg21
I300
sg22
g23
sg24
I0
ssg9
g25
saF7.195999999999998
aF130.256
aa(lp176
(dp177
g5
(dp178
g14
S'instructionsSlideEntry4'
p179
sg7
g16
sg17
S'Their choice affects your payoff.'
p180
sg19
I650
sg20
I2
sg21
I300
sg22
g23
sg24
I0
ssg9
g25
saF3.4890000000000043
aF137.452
aa(lp181
(dp182
g5
(dp183
g39
g45
ssg9
g41
saF0.0
aF140.941
aa(lp184
(dp185
g5
(dp186
g7
S'rgba(0,255,0,.1)'
p187
ssg9
g10
saF0.0
aF140.941
aa(lp188
(dp189
g5
(dp190
g14
g53
sg7
S'rgba(0,127,0,1)'
p191
sg17
S'Experiment Details'
p192
sg19
I50
sg20
I1
sg21
I400
sg22
g23
sg24
I0
ssg9
g25
saF12.552999999999997
aF140.941
aa(lp193
(dp194
g5
(dp195
g14
S'instructionsSlideEntry1'
p196
sg7
g16
sg17
S'Exchange Rate: 20 Francs = $1'
p197
sg19
I175
sg20
I2
sg21
I300
sg22
g23
sg24
I0
ssg9
g25
saF6.598000000000013
aF153.494
aa(lp198
(dp199
g5
(dp200
g14
S'instructionsSlideEntry2'
p201
sg7
g16
sg17
S'5 Matches (may have different # of periods)'
p202
sg19
I275
sg20
I2
sg21
I300
sg22
g23
sg24
I0
ssg9
g25
saF8.220999999999975
aF160.092
aa(lp203
(dp204
g5
(dp205
g14
S'instructionsSlideEntry3'
p206
sg7
g16
sg17
S'At beginning of each match, randomly matched with another subject'
p207
sg19
I375
sg20
I2
sg21
I300
sg22
g23
sg24
I0
ssg9
g25
saF15.733000000000004
aF168.313
aa(lp208
(dp209
g5
(dp210
g14
S'instructionsSlideEntry4'
p211
sg7
g16
sg17
S'Your identity is anonymous'
p212
sg19
I475
sg20
I2
sg21
I300
sg22
g23
sg24
I0
ssg9
g25
saF21.087000000000018
aF184.046
aa(lp213
(dp214
g5
(dp215
g14
S'instructionsSlideEntry5'
p216
sg7
g16
sg17
S'Matched with same subject for entire match'
p217
sg19
I575
sg20
I2
sg21
I300
sg22
g23
sg24
I0
ssg9
g25
saF14.087999999999994
aF205.133
aa(lp218
(dp219
g5
(dp220
g14
S'instructionsSlideEntry6'
p221
sg7
g16
sg17
S'Randomly matched with another subject (anonymous)'
p222
sg19
I675
sg20
I2
sg21
I300
sg22
g23
sg24
I0
ssg9
g25
saF7.075999999999993
aF219.221
aa(lp223
(dp224
g5
(dp225
g39
g45
ssg9
g41
saF0.0
aF226.297
aa(lp226
(dp227
g5
(dp228
sg9
S'setInstructionParameters'
p229
saF0.0
aF226.297
aa(lp230
(dp231
g5
(dp232
sg9
S'instructionsSetState'
p233
saF0.0
aF226.297
aa(lp234
(dp235
g5
(dp236
S'y'
p237
I500
sS'x'
p238
I500
ssg9
S'placeCursor'
p239
saF12.549000000000007
aF226.297
aa(lp240
(dp241
g5
(dp242
g39
S'toggleOverlay'
p243
ssg9
g41
saF0.0
aF238.846
aa(lp244
(dp245
g5
(dp246
S'divName'
p247
S'gameDiv'
p248
ssg9
S'highlightDiv'
p249
saF0.0
aF238.846
aa(lp250
(dp251
g5
(dp252
S'sequence'
p253
(lp254
(lp255
S'toDiv'
p256
a(dp257
g247
g248
saassS'runOnRefresh'
p258
I00
sg9
S'mouseSequence'
p259
saF8.224999999999994
aF238.846
aa(lp260
(dp261
g5
(dp262
g253
(lp263
(lp264
g256
a(dp265
g247
S'gameTableRowLabel_1'
p266
saassg258
I00
sg9
g259
saF0.9509999999999934
aF247.071
aa(lp267
(dp268
g5
(dp269
g253
(lp270
(lp271
g256
a(dp272
g247
S'gameTableRowLabel_2'
p273
saassg258
I00
sg9
g259
saF5.3440000000000225
aF248.022
aa(lp274
(dp275
g5
(dp276
g253
(lp277
(lp278
g256
a(dp279
g247
S'gameTableColLabel_1'
p280
saassg258
I00
sg9
g259
saF0.900999999999982
aF253.366
aa(lp281
(dp282
g5
(dp283
g253
(lp284
(lp285
g256
a(dp286
g247
S'gameTableColLabel_2'
p287
saassg258
I00
sg9
g259
saF15.935999999999979
aF254.267
aa(lp288
(dp289
g5
(dp290
g253
(lp291
(lp292
g256
a(dp293
g247
g273
saassg258
I00
sg9
g259
saF2.7070000000000505
aF270.203
aa(lp294
(dp295
g5
(dp296
g253
(lp297
(lp298
g256
a(dp299
g247
g280
saassg258
I00
sg9
g259
saF0.8489999999999895
aF272.91
aa(lp300
(dp301
g5
(dp302
g253
(lp303
(lp304
g256
a(dp305
g247
S'gameTableEntryPay1_2_1'
p306
saassg258
I00
sg9
g259
saF1.968999999999994
aF273.759
aa(lp307
(dp308
g5
(dp309
g253
(lp310
(lp311
g256
a(dp312
g247
S'gameTableEntryPay2_2_1'
p313
saassg258
I00
sg9
g259
saF19.567999999999984
aF275.728
aa(lp314
(dp315
g5
(dp316
g247
g248
ssg9
S'unHighlightDiv'
p317
saF0.0
aF295.296
aa(lp318
(dp319
g5
(dp320
g247
S'questionsDiv'
p321
ssg9
g249
saF0.0
aF295.296
aa(lp322
(dp323
g5
(dp324
g253
(lp325
(lp326
g256
a(dp327
g247
S'periodSummaryLabel'
p328
saassg258
I00
sg9
g259
saF6.557000000000016
aF295.296
aa(lp329
(dp330
g5
(dp331
g253
(lp332
(lp333
g256
a(dp334
g247
S'summaryLabel'
p335
saassg258
I00
sg9
g259
saF6.100999999999999
aF301.853
aa(lp336
(dp337
g5
(dp338
g247
g321
ssg9
g317
saF0.0
aF307.954
aa(lp339
(dp340
g5
(dp341
g247
S'historyDiv'
p342
ssg9
g249
saF0.0
aF307.954
aa(lp343
(dp344
g5
(dp345
g247
S'historyLabels'
p346
ssg9
g249
saF0.0
aF307.954
aa(lp347
(dp348
g5
(dp349
g253
(lp350
(lp351
g256
a(dp352
g247
g346
saassg258
I00
sg9
g259
saF7.007999999999981
aF307.954
aa(lp353
(dp354
g5
(dp355
g247
g342
ssg9
g317
saF0.0
aF314.962
aa(lp356
(dp357
g5
(dp358
g247
g346
ssg9
g317
saF0.0
aF314.962
aa(lp359
(dp360
g5
(dp361
g247
S'statusBar'
p362
ssg9
g249
saF0.0
aF314.962
aa(lp363
(dp364
g5
(dp365
g253
(lp366
(lp367
g256
a(dp368
g247
g362
saassg258
I00
sg9
g259
saF11.028999999999996
aF314.962
aa(lp369
(dp370
g5
(dp371
g247
g362
ssg9
g317
saF0.0
aF325.991
aa(lp372
(dp373
g5
(dp374
g39
g243
ssg9
g41
saF32.007000000000005
aF325.991
aa(lp375
(dp376
g5
(dp377
g253
(lp378
(lp379
g256
a(dp380
g247
g266
saa(lp381
S'clickDiv'
p382
a(dp383
g5
(dp384
S'row'
p385
I1
ssg9
S'instructionsSelectRow'
p386
sg247
g266
saassg258
I00
sg9
g259
saF6.228999999999985
aF357.998
aa(lp387
(dp388
g5
(dp389
g253
(lp390
(lp391
g256
a(dp392
g247
S'summaryMyChoiceEntry'
p393
saassg258
I00
sg9
g259
saF14.393000000000029
aF364.227
aa(lp394
(dp395
g5
(dp396
g253
(lp397
(lp398
g256
a(dp399
g247
g287
saa(lp400
g382
a(dp401
g5
(dp402
S'col'
p403
I2
ssg9
S'instructionsSelectCol'
p404
sg247
g287
saassg258
I00
sg9
g259
saF6.163000000000011
aF378.62
aa(lp405
(dp406
g5
(dp407
g253
(lp408
(lp409
g256
a(dp410
g247
S'summaryOthersChoiceEntryGuess'
p411
saassg258
I00
sg9
g259
saF27.128999999999962
aF384.783
aa(lp412
(dp413
g5
(dp414
g253
(lp415
(lp416
g256
a(dp417
g247
g362
saassg258
I00
sg9
g259
saF21.31600000000003
aF411.912
aa(lp418
(dp419
g5
(dp420
sg9
S'instructionsFinishPeriod'
p421
saF17.221000000000004
aF433.228
aa(lp422
(dp423
g5
(dp424
g253
(lp425
(lp426
g256
a(dp427
S'anchor'
p428
S'south'
p429
sg247
S'selectedColumnDiv2'
p430
saassg258
I00
sg9
g259
saF11.890999999999963
aF450.449
aa(lp431
(dp432
g5
(dp433
g253
(lp434
(lp435
g256
a(dp436
g247
S'gameTableEntry_1_1'
p437
saassg258
I00
sg9
g259
saF26.18300000000005
aF462.34
aa(lp438
(dp439
g5
(dp440
g253
(lp441
(lp442
g256
a(dp443
g247
S'summaryOthersChoiceEntryActual'
p444
saassg258
I00
sg9
g259
saF2.217999999999961
aF488.523
aa(lp445
(dp446
g5
(dp447
g253
(lp448
(lp449
g256
a(dp450
g247
S'summaryPayoffs'
p451
saassg258
I00
sg9
g259
saF5.3559999999999945
aF490.741
aa(lp452
(dp453
g5
(dp454
g253
(lp455
(lp456
g256
a(dp457
g247
S'historyEntry_20_0'
p458
saassg258
I00
sg9
g259
saF4.366000000000042
aF496.097
aa(lp459
(dp460
g5
(dp461
g253
(lp462
(lp463
g256
a(dp464
g247
g335
saassg258
I00
sg9
g259
saF2.6259999999999764
aF500.463
aa(lp465
(dp466
g5
(dp467
g253
(lp468
(lp469
g256
a(dp470
g247
S'totalPayoffMineLabel'
p471
saassg258
I00
sg9
g259
saF2.8870000000000005
aF503.089
aa(lp472
(dp473
g5
(dp474
g253
(lp475
(lp476
g256
a(dp477
g247
S'correctGuessesLabel'
p478
saassg258
I00
sg9
g259
saF5.9529999999999745
aF505.976
aa(lp479
(dp480
g5
(dp481
g253
(lp482
(lp483
g256
a(dp484
g247
g437
saassg258
I00
sg9
g259
saF6.593000000000075
aF511.929
aa(lp485
(dp486
g5
(dp487
g253
(lp488
(lp489
g382
a(dp490
g5
(dp491
sg9
S'instructionsMovetoNextPeriod'
p492
sg247
g437
saassg258
I00
sg9
g259
saF4.8559999999999945
aF518.522
aa(lp493
(dp494
g5
(dp495
g39
g45
ssg9
g41
saF0.0
aF523.378
aa(lp496
(dp497
g5
(dp498
g7
S'rgba(0,255,0,.1)'
p499
ssg9
g10
saF0.0
aF523.378
aa(lp500
(dp501
g5
(dp502
g14
g53
sg7
S'rgba(0,127,0,1)'
p503
sg17
S'Number of Periods Per Match'
p504
sg19
I50
sg20
I1
sg21
I400
sg22
g23
sg24
I0
ssg9
g25
saF9.93999999999994
aF523.378
aa(lp505
(dp506
g5
(dp507
g14
S'instructionsSlideEntry1'
p508
sg7
g16
sg17
S'Each Period 1 Number drawn from set'
p509
sg19
I150
sg20
I2
sg21
I300
sg22
g23
sg24
I0
ssg9
g25
saF3.2129999999999654
aF533.318
aa(lp510
(dp511
g5
(dp512
g14
S'instructionsSlideEntry2'
p513
sg7
g16
sg17
S'{1,2,3,...,98,99,100} (and replaced).'
p514
sg19
I250
sg20
I2
sg21
I300
sg22
g23
sg24
I0
ssg9
g25
saF9.42100000000005
aF536.531
aa(lp515
(dp516
g5
(dp517
g14
S'instructionsSlideEntry3'
p518
sg7
g16
sg17
S'If Number is 1 - The match ends.'
p519
sg19
I350
sg20
I2
sg21
I300
sg22
g23
sg24
I0
ssg9
g25
saF3.9279999999999973
aF545.952
aa(lp520
(dp521
g5
(dp522
g14
S'instructionsSlideEntry4'
p523
sg7
g16
sg17
S'If Number is not 1 - There match will continue.'
p524
sg19
I450
sg20
I2
sg21
I300
sg22
g23
sg24
I0
ssg9
g25
saF19.239000000000033
aF549.88
aa(lp525
(dp526
g5
(dp527
g14
S'instructionsSlideEntry5'
p528
sg7
g16
sg17
S'Expected number of periods is 100 (but may be different).'
p529
sg19
I550
sg20
I2
sg21
I300
sg22
g23
sg24
I0
ssg9
g25
saF4.499000000000024
aF569.119
aa(lp530
(dp531
g5
(dp532
g14
S'instructionsSlideEntry6'
p533
sg7
g16
sg17
S'This procedure has been performed on the computer,'
p534
sg19
I650
sg20
I2
sg21
I300
sg22
g23
sg24
I0
ssg9
g25
saF0.0
aF573.618
aa(lp535
(dp536
g5
(dp537
g14
S'instructionsSlideEntry7'
p538
sg7
g16
sg17
S'before the experiment.'
p539
sg19
I750
sg20
I2
sg21
I300
sg22
g23
sg24
I0
ssg9
g25
saF27.209999999999923
aF573.618
aa(lp540
(dp541
g5
(dp542
g39
g45
ssg9
g41
saF0.0
aF600.828
aa(lp543
(dp544
g5
(dp545
g7
S'rgba(255,0,0,.1)'
p546
ssg9
g10
saF0.0
aF600.828
aa(lp547
(dp548
g5
(dp549
g14
g53
sg7
S'rgba(127,0,0,1)'
p550
sg17
S'Payoffs'
p551
sg19
I50
sg20
I1
sg21
I400
sg22
g23
sg24
I0
ssg9
g25
saF1.245999999999981
aF600.828
aa(lp552
(dp553
g5
(dp554
g14
S'instructionsSlideEntry1'
p555
sg7
g16
sg17
S'Your payment will contain the following:'
p556
sg19
I150
sg20
I2
sg21
I300
sg22
g24
sg24
I200
ssg9
g25
saF4.062000000000012
aF602.074
aa(lp557
(dp558
g5
(dp559
g14
S'instructionsSlideEntry2'
p560
sg7
g16
sg17
S'1. $5 Show up fee.'
p561
sg19
I250
sg20
I2
sg21
I300
sg22
g24
sg24
I250
ssg9
g25
saF5.105000000000018
aF606.136
aa(lp562
(dp563
g5
(dp564
g14
S'instructionsSlideEntry3'
p565
sg7
g16
sg17
S'2. Payment from randomly selected block of 30 periods.'
p566
sg19
I350
sg20
I2
sg21
I300
sg22
g24
sg24
I250
ssg9
g25
saF6.675000000000068
aF611.241
aa(lp567
(dp568
g5
(dp569
g14
S'instructionsSlideEntry4'
p570
sg7
g16
sg17
S'3. Bonus payment for raffle tickets.'
p571
sg19
I450
sg20
I2
sg21
I300
sg22
g24
sg24
I250
ssg9
g25
saF9.451999999999998
aF617.916
aa(lp572
(dp573
g5
(dp574
g14
S'instructionsSlideEntry5'
p575
sg7
g16
sg17
S'4. Payment for Three Additional Tasks.'
p576
sg19
I550
sg20
I2
sg21
I300
sg22
g24
sg24
I250
ssg9
g25
saF8.488999999999919
aF627.368
aa(lp577
(dp578
g5
(dp579
g14
S'instructionsSlideEntry6'
p580
sg7
g16
sg17
S'Francs converted to dollars at the end.'
p581
sg19
I650
sg20
I2
sg21
I300
sg22
g24
sg24
I200
ssg9
g25
saF4.119000000000028
aF635.857
aa(lp582
(dp583
g5
(dp584
g14
S'instructionsSlideEntry7'
p585
sg7
g16
sg17
S'Paid in cash, in private.'
p586
sg19
I750
sg20
I2
sg21
I300
sg22
g24
sg24
I200
ssg9
g25
saF2.669999999999959
aF639.976
aa(lp587
(dp588
g5
(dp589
g39
g45
ssg9
g41
saF0.0
aF642.646
aa(lp590
(dp591
g5
(dp592
g7
S'rgba(0,0,255,.1)'
p593
ssg9
g10
saF0.0
aF642.646
aa(lp594
(dp595
g5
(dp596
g14
g53
sg7
S'rgba(0,0,127,1)'
p597
sg17
S'Random Block of 30 Periods'
p598
sg19
I50
sg20
I1
sg21
I400
sg22
g23
sg24
I0
ssg9
g25
saF4.743000000000052
aF642.646
aa(lp599
(dp600
g5
(dp601
g14
S'instructionsSlideEntry1'
p602
sg7
g16
sg17
S'Randomly select 1 period.'
p603
sg19
I175
sg20
I2
sg21
I300
sg22
g23
sg24
I0
ssg9
g25
saF4.70799999999997
aF647.389
aa(lp604
(dp605
g5
(dp606
g14
S'instructionsSlideEntry2'
p607
sg7
g16
sg17
S'Block contains that period, and following 29.'
p608
sg19
I275
sg20
I2
sg21
I300
sg22
g23
sg24
I0
ssg9
g25
saF6.226999999999975
aF652.097
aa(lp609
(dp610
g5
(dp611
g14
S'instructionsSlideEntry3'
p612
sg7
g16
sg17
S'Block can span multiple matches.'
p613
sg19
I375
sg20
I2
sg21
I300
sg22
g23
sg24
I0
ssg9
g25
saF4.352000000000089
aF658.324
aa(lp614
(dp615
g5
(dp616
g14
S'instructionsSlideEntry4'
p617
sg7
g16
sg17
S'If period is at end, then block loops to 1st period.'
p618
sg19
I475
sg20
I2
sg21
I300
sg22
g23
sg24
I0
ssg9
g25
saF11.333999999999946
aF662.676
aa(lp619
(dp620
g5
(dp621
g14
S'instructionsSlideEntry5'
p622
sg7
g16
sg17
S'Each period equally likely to be paid.'
p623
sg19
I575
sg20
I2
sg21
I300
sg22
g23
sg24
I0
ssg9
g25
saF12.774000000000001
aF674.01
aa(lp624
(dp625
g5
(dp626
g14
S'instructionsSlideEntry6'
p627
sg7
g16
sg17
S'Random period pre-selected, written on board.'
p628
sg19
I675
sg20
I2
sg21
I300
sg22
g23
sg24
I0
ssg9
g25
saF14.682000000000016
aF686.784
aa(lp629
(dp630
g5
(dp631
g39
g45
ssg9
g41
saF0.0
aF701.466
aa(lp632
(dp633
g5
(dp634
g7
S'rgba(255,0,0,.1)'
p635
ssg9
g10
saF0.0
aF701.466
aa(lp636
(dp637
g5
(dp638
g14
g53
sg7
S'rgba(127,0,0,1)'
p639
sg17
S'Random Block of 30 Periods: Examples'
p640
sg19
I50
sg20
I1
sg21
I400
sg22
g23
sg24
I0
ssg9
g25
saF5.317999999999984
aF701.466
aa(lp641
(dp642
g5
(dp643
g14
S'instructionsSlideEntry1'
p644
sg7
g16
sg17
S'Randomly selected period: Match #4 Period #14,'
p645
sg19
I200
sg20
I2
sg21
I300
sg22
g24
sg24
I200
ssg9
g25
saF3.882000000000062
aF706.784
aa(lp646
(dp647
g5
(dp648
g14
S'instructionsSlideEntry2'
p649
sg7
g16
sg17
S'Block: Match #4 P14-P43.'
p650
sg19
I300
sg20
I2
sg21
I300
sg22
g24
sg24
I200
ssg9
g25
saF10.237999999999943
aF710.666
aa(lp651
(dp652
g5
(dp653
g14
S'instructionsSlideEntry3'
p654
sg7
g16
sg17
S'Randomly selected period: Match #2 Period #91,'
p655
sg19
I450
sg20
I2
sg21
I300
sg22
g24
sg24
I200
ssg9
g25
saF7.178999999999974
aF720.904
aa(lp656
(dp657
g5
(dp658
g14
S'instructionsSlideEntry4'
p659
sg7
g16
sg17
S'Block: Match #2 P91-P100 and Match #3 P1-P20.'
p660
sg19
I550
sg20
I2
sg21
I300
sg22
g24
sg24
I200
ssg9
g25
saF12.926000000000045
aF728.083
aa(lp661
(dp662
g5
(dp663
g14
S'instructionsSlideEntry5'
p664
sg7
g16
sg17
S'Randomly selected period: Match #5 Period #81,'
p665
sg19
I700
sg20
I2
sg21
I300
sg22
g24
sg24
I200
ssg9
g25
saF7.52699999999993
aF741.009
aa(lp666
(dp667
g5
(dp668
g14
S'instructionsSlideEntry6'
p669
sg7
g16
sg17
S'Block: Match #5 P81-P85 and Match #1 P1-P25.'
p670
sg19
I800
sg20
I2
sg21
I300
sg22
g24
sg24
I200
ssg9
g25
saI-1
aF748.536
aa.