(dp0
I8
(dp1
I0
(dp2
I0
(dp3
S'game'
p4
S'SDH'
p5
sS'roles'
p6
I0
sS'groups'
p7
I0
ssI1
(dp8
g4
S'PDL'
p9
sg6
I1
sg7
I0
ssI2
(dp10
g4
S'SHL'
p11
sg6
I0
sg7
I0
ssI3
(dp12
g4
S'BOH'
p13
sg6
I0
sg7
I0
sssI1
(dp14
I0
(dp15
g4
S'SHH'
p16
sg6
I1
sg7
I1
ssI1
(dp17
g4
S'PDH'
p18
sg6
I1
sg7
I1
ssI2
(dp19
g4
S'SDL'
p20
sg6
I1
sg7
I1
ssI3
(dp21
g4
S'BOL'
p22
sg6
I1
sg7
I1
sssI2
(dp23
I0
(dp24
g4
S'BOH'
p25
sg6
I0
sg7
I2
ssI1
(dp26
g4
S'SHL'
p27
sg6
I0
sg7
I2
ssI2
(dp28
g4
S'PDL'
p29
sg6
I1
sg7
I2
ssI3
(dp30
g4
S'SDH'
p31
sg6
I1
sg7
I2
sssI3
(dp32
I0
(dp33
g4
S'PDH'
p34
sg6
I1
sg7
I3
ssI1
(dp35
g4
S'SHH'
p36
sg6
I0
sg7
I3
ssI2
(dp37
g4
S'BOL'
p38
sg6
I0
sg7
I3
ssI3
(dp39
g4
S'SDL'
p40
sg6
I1
sg7
I3
sssI4
(dp41
I0
(dp42
g4
S'SDH'
p43
sg6
I1
sg7
I0
ssI1
(dp44
g4
S'SHH'
p45
sg6
I1
sg7
I3
ssI2
(dp46
g4
S'PDL'
p47
sg6
I0
sg7
I2
ssI3
(dp48
g4
S'BOL'
p49
sg6
I0
sg7
I1
sssI5
(dp50
I0
(dp51
g4
S'SHH'
p52
sg6
I0
sg7
I1
ssI1
(dp53
g4
S'PDL'
p54
sg6
I0
sg7
I0
ssI2
(dp55
g4
S'BOL'
p56
sg6
I1
sg7
I3
ssI3
(dp57
g4
S'SDH'
p58
sg6
I0
sg7
I2
sssI6
(dp59
I0
(dp60
g4
S'BOH'
p61
sg6
I1
sg7
I2
ssI1
(dp62
g4
S'PDH'
p63
sg6
I0
sg7
I1
ssI2
(dp64
g4
S'SHL'
p65
sg6
I1
sg7
I0
ssI3
(dp66
g4
S'SDL'
p67
sg6
I0
sg7
I3
sssI7
(dp68
I0
(dp69
g4
S'PDH'
p70
sg6
I0
sg7
I3
ssI1
(dp71
g4
S'SHL'
p72
sg6
I1
sg7
I2
ssI2
(dp73
g4
S'SDL'
p74
sg6
I0
sg7
I1
ssI3
(dp75
g4
S'BOH'
p76
sg6
I1
sg7
I0
ssssI10
(dp77
I0
(dp78
I0
(dp79
g4
S'SHL'
p80
sg6
I0
sg7
I0
ssI1
(dp81
g4
S'SDH'
p82
sg6
I1
sg7
I0
ssI2
(dp83
g4
S'PDL'
p84
sg6
I1
sg7
I0
ssI3
(dp85
g4
S'BOH'
p86
sg6
I0
sg7
I0
sssI1
(dp87
I0
(dp88
g4
S'BOL'
p89
sg6
I0
sg7
I1
ssI1
(dp90
g4
S'SHH'
p91
sg6
I0
sg7
I1
ssI2
(dp92
g4
S'SDL'
p93
sg6
I1
sg7
I1
ssI3
(dp94
g4
S'PDH'
p95
sg6
I0
sg7
I1
sssI2
(dp96
I0
(dp97
g4
S'SDH'
p98
sg6
I0
sg7
I2
ssI1
(dp99
g4
S'PDL'
p100
sg6
I1
sg7
I2
ssI2
(dp101
g4
S'SHL'
p102
sg6
I1
sg7
I2
ssI3
(dp103
g4
S'BOH'
p104
sg6
I0
sg7
I2
sssI3
(dp105
I0
(dp106
g4
S'SHH'
p107
sg6
I1
sg7
I3
ssI1
(dp108
g4
S'BOL'
p109
sg6
I1
sg7
I3
ssI2
(dp110
g4
S'SDL'
p111
sg6
I0
sg7
I3
ssI3
(dp112
g4
S'PDH'
p113
sg6
I1
sg7
I3
sssI4
(dp114
I0
(dp115
g4
S'SDH'
p116
sg6
I1
sg7
I4
ssI1
(dp117
g4
S'PDH'
p118
sg6
I0
sg7
I4
ssI2
(dp119
g4
S'SHL'
p120
sg6
I1
sg7
I4
ssI3
(dp121
g4
S'BOL'
p122
sg6
I0
sg7
I4
sssI5
(dp123
I0
(dp124
g4
S'SHL'
p125
sg6
I1
sg7
I0
ssI1
(dp126
g4
S'PDH'
p127
sg6
I1
sg7
I4
ssI2
(dp128
g4
S'SDL'
p129
sg6
I1
sg7
I3
ssI3
(dp130
g4
S'BOH'
p131
sg6
I1
sg7
I2
sssI6
(dp132
I0
(dp133
g4
S'BOL'
p134
sg6
I1
sg7
I1
ssI1
(dp135
g4
S'SDH'
p136
sg6
I0
sg7
I0
ssI2
(dp137
g4
S'SHL'
p138
sg6
I0
sg7
I4
ssI3
(dp139
g4
S'PDH'
p140
sg6
I0
sg7
I3
sssI7
(dp141
I0
(dp142
g4
S'SDH'
p143
sg6
I1
sg7
I2
ssI1
(dp144
g4
S'SHH'
p145
sg6
I1
sg7
I1
ssI2
(dp146
g4
S'PDL'
p147
sg6
I0
sg7
I0
ssI3
(dp148
g4
S'BOL'
p149
sg6
I1
sg7
I4
sssI8
(dp150
I0
(dp151
g4
S'SHH'
p152
sg6
I0
sg7
I3
ssI1
(dp153
g4
S'PDL'
p154
sg6
I0
sg7
I2
ssI2
(dp155
g4
S'SDL'
p156
sg6
I0
sg7
I1
ssI3
(dp157
g4
S'BOH'
p158
sg6
I1
sg7
I0
sssI9
(dp159
I0
(dp160
g4
S'SDH'
p161
sg6
I0
sg7
I4
ssI1
(dp162
g4
S'BOL'
p163
sg6
I0
sg7
I3
ssI2
(dp164
g4
S'SHL'
p165
sg6
I0
sg7
I2
ssI3
(dp166
g4
S'PDH'
p167
sg6
I1
sg7
I1
ssssI12
(dp168
I0
(dp169
I0
(dp170
g4
S'SHL'
p171
sg6
I0
sg7
I0
ssI1
(dp172
g4
S'SDH'
p173
sg6
I0
sg7
I0
ssI2
(dp174
g4
S'BOL'
p175
sg6
I1
sg7
I0
ssI3
(dp176
g4
S'PDH'
p177
sg6
I1
sg7
I0
sssI1
(dp178
I0
(dp179
g4
S'BOH'
p180
sg6
I0
sg7
I1
ssI1
(dp181
g4
S'PDL'
p182
sg6
I0
sg7
I1
ssI2
(dp183
g4
S'SHH'
p184
sg6
I0
sg7
I1
ssI3
(dp185
g4
S'SDL'
p186
sg6
I0
sg7
I1
sssI2
(dp187
I0
(dp188
g4
S'SDH'
p189
sg6
I0
sg7
I2
ssI1
(dp190
g4
S'BOL'
p191
sg6
I1
sg7
I2
ssI2
(dp192
g4
S'SHL'
p193
sg6
I0
sg7
I2
ssI3
(dp194
g4
S'PDH'
p195
sg6
I1
sg7
I2
sssI3
(dp196
I0
(dp197
g4
S'SDL'
p198
sg6
I0
sg7
I3
ssI1
(dp199
g4
S'BOH'
p200
sg6
I1
sg7
I3
ssI2
(dp201
g4
S'SHH'
p202
sg6
I1
sg7
I3
ssI3
(dp203
g4
S'PDL'
p204
sg6
I1
sg7
I3
sssI4
(dp205
I0
(dp206
g4
S'PDH'
p207
sg6
I0
sg7
I4
ssI1
(dp208
g4
S'SDL'
p209
sg6
I0
sg7
I4
ssI2
(dp210
g4
S'BOH'
p211
sg6
I1
sg7
I4
ssI3
(dp212
g4
S'SHL'
p213
sg6
I0
sg7
I4
sssI5
(dp214
I0
(dp215
g4
S'BOL'
p216
sg6
I0
sg7
I5
ssI1
(dp217
g4
S'SDH'
p218
sg6
I0
sg7
I5
ssI2
(dp219
g4
S'PDL'
p220
sg6
I1
sg7
I5
ssI3
(dp221
g4
S'SHH'
p222
sg6
I0
sg7
I5
sssI6
(dp223
I0
(dp224
g4
S'SHL'
p225
sg6
I1
sg7
I0
ssI1
(dp226
g4
S'SDH'
p227
sg6
I1
sg7
I5
ssI2
(dp228
g4
S'BOH'
p229
sg6
I0
sg7
I4
ssI3
(dp230
g4
S'PDL'
p231
sg6
I0
sg7
I3
sssI7
(dp232
I0
(dp233
g4
S'BOH'
p234
sg6
I1
sg7
I1
ssI1
(dp235
g4
S'SDH'
p236
sg6
I1
sg7
I0
ssI2
(dp237
g4
S'PDL'
p238
sg6
I0
sg7
I5
ssI3
(dp239
g4
S'SHL'
p240
sg6
I1
sg7
I4
sssI8
(dp241
I0
(dp242
g4
S'SDH'
p243
sg6
I1
sg7
I2
ssI1
(dp244
g4
S'PDL'
p245
sg6
I1
sg7
I1
ssI2
(dp246
g4
S'BOL'
p247
sg6
I0
sg7
I0
ssI3
(dp248
g4
S'SHH'
p249
sg6
I1
sg7
I5
sssI9
(dp250
I0
(dp251
g4
S'SDL'
p252
sg6
I1
sg7
I3
ssI1
(dp253
g4
S'BOL'
p254
sg6
I0
sg7
I2
ssI2
(dp255
g4
S'SHH'
p256
sg6
I1
sg7
I1
ssI3
(dp257
g4
S'PDH'
p258
sg6
I0
sg7
I0
sssI10
(dp259
I0
(dp260
g4
S'PDH'
p261
sg6
I1
sg7
I4
ssI1
(dp262
g4
S'BOH'
p263
sg6
I0
sg7
I3
ssI2
(dp264
g4
S'SHL'
p265
sg6
I1
sg7
I2
ssI3
(dp266
g4
S'SDL'
p267
sg6
I1
sg7
I1
sssI11
(dp268
I0
(dp269
g4
S'BOL'
p270
sg6
I1
sg7
I5
ssI1
(dp271
g4
S'SDL'
p272
sg6
I1
sg7
I4
ssI2
(dp273
g4
S'SHH'
p274
sg6
I0
sg7
I3
ssI3
(dp275
g4
S'PDH'
p276
sg6
I0
sg7
I2
ssssI18
(dp277
I0
(dp278
I0
(dp279
g4
S'BOH'
p280
sg6
I1
sg7
I0
ssI1
(dp281
g4
S'PDH'
p282
sg6
I0
sg7
I0
ssI2
(dp283
g4
S'SDL'
p284
sg6
I1
sg7
I0
ssI3
(dp285
g4
S'SHL'
p286
sg6
I0
sg7
I0
sssI1
(dp287
I0
(dp288
g4
S'SDH'
p289
sg6
I1
sg7
I1
ssI1
(dp290
g4
S'BOL'
p291
sg6
I0
sg7
I1
ssI2
(dp292
g4
S'PDH'
p293
sg6
I0
sg7
I1
ssI3
(dp294
g4
S'SHL'
p295
sg6
I1
sg7
I1
sssI2
(dp296
I0
(dp297
g4
S'SHL'
p298
sg6
I1
sg7
I2
ssI1
(dp299
g4
S'SDL'
p300
sg6
I1
sg7
I2
ssI2
(dp301
g4
S'PDH'
p302
sg6
I0
sg7
I2
ssI3
(dp303
g4
S'BOH'
p304
sg6
I0
sg7
I2
sssI3
(dp305
I0
(dp306
g4
S'BOH'
p307
sg6
I1
sg7
I3
ssI1
(dp308
g4
S'SDL'
p309
sg6
I0
sg7
I3
ssI2
(dp310
g4
S'PDL'
p311
sg6
I0
sg7
I3
ssI3
(dp312
g4
S'SHH'
p313
sg6
I0
sg7
I3
sssI4
(dp314
I0
(dp315
g4
S'BOH'
p316
sg6
I0
sg7
I4
ssI1
(dp317
g4
S'SHL'
p318
sg6
I0
sg7
I4
ssI2
(dp319
g4
S'SDH'
p320
sg6
I0
sg7
I4
ssI3
(dp321
g4
S'PDL'
p322
sg6
I0
sg7
I4
sssI5
(dp323
I0
(dp324
g4
S'SDH'
p325
sg6
I1
sg7
I5
ssI1
(dp326
g4
S'BOL'
p327
sg6
I1
sg7
I5
ssI2
(dp328
g4
S'SHH'
p329
sg6
I0
sg7
I5
ssI3
(dp330
g4
S'PDL'
p331
sg6
I1
sg7
I5
sssI6
(dp332
I0
(dp333
g4
S'PDL'
p334
sg6
I0
sg7
I6
ssI1
(dp335
g4
S'BOH'
p336
sg6
I1
sg7
I6
ssI2
(dp337
g4
S'SDH'
p338
sg6
I0
sg7
I6
ssI3
(dp339
g4
S'SHL'
p340
sg6
I1
sg7
I6
sssI7
(dp341
I0
(dp342
g4
S'SDL'
p343
sg6
I0
sg7
I7
ssI1
(dp344
g4
S'BOL'
p345
sg6
I1
sg7
I7
ssI2
(dp346
g4
S'PDH'
p347
sg6
I0
sg7
I7
ssI3
(dp348
g4
S'SHH'
p349
sg6
I1
sg7
I7
sssI8
(dp350
I0
(dp351
g4
S'SHH'
p352
sg6
I0
sg7
I8
ssI1
(dp353
g4
S'SDL'
p354
sg6
I0
sg7
I8
ssI2
(dp355
g4
S'BOL'
p356
sg6
I1
sg7
I8
ssI3
(dp357
g4
S'PDH'
p358
sg6
I1
sg7
I8
sssI9
(dp359
I0
(dp360
g4
S'BOH'
p361
sg6
I0
sg7
I0
ssI1
(dp362
g4
S'SDL'
p363
sg6
I1
sg7
I8
ssI2
(dp364
g4
S'PDH'
p365
sg6
I1
sg7
I7
ssI3
(dp366
g4
S'SHL'
p367
sg6
I0
sg7
I6
sssI10
(dp368
I0
(dp369
g4
S'SDH'
p370
sg6
I0
sg7
I1
ssI1
(dp371
g4
S'PDH'
p372
sg6
I1
sg7
I0
ssI2
(dp373
g4
S'BOL'
p374
sg6
I0
sg7
I8
ssI3
(dp375
g4
S'SHH'
p376
sg6
I0
sg7
I7
sssI11
(dp377
I0
(dp378
g4
S'SHL'
p379
sg6
I0
sg7
I2
ssI1
(dp380
g4
S'BOL'
p381
sg6
I1
sg7
I1
ssI2
(dp382
g4
S'SDL'
p383
sg6
I0
sg7
I0
ssI3
(dp384
g4
S'PDH'
p385
sg6
I0
sg7
I8
sssI12
(dp386
I0
(dp387
g4
S'BOH'
p388
sg6
I0
sg7
I3
ssI1
(dp389
g4
S'SDL'
p390
sg6
I0
sg7
I2
ssI2
(dp391
g4
S'PDH'
p392
sg6
I1
sg7
I1
ssI3
(dp393
g4
S'SHL'
p394
sg6
I1
sg7
I0
sssI13
(dp395
I0
(dp396
g4
S'BOH'
p397
sg6
I1
sg7
I4
ssI1
(dp398
g4
S'SDL'
p399
sg6
I1
sg7
I3
ssI2
(dp400
g4
S'PDH'
p401
sg6
I1
sg7
I2
ssI3
(dp402
g4
S'SHL'
p403
sg6
I0
sg7
I1
sssI14
(dp404
I0
(dp405
g4
S'SDH'
p406
sg6
I0
sg7
I5
ssI1
(dp407
g4
S'SHL'
p408
sg6
I1
sg7
I4
ssI2
(dp409
g4
S'PDL'
p410
sg6
I1
sg7
I3
ssI3
(dp411
g4
S'BOH'
p412
sg6
I1
sg7
I2
sssI15
(dp413
I0
(dp414
g4
S'PDL'
p415
sg6
I1
sg7
I6
ssI1
(dp416
g4
S'BOL'
p417
sg6
I0
sg7
I5
ssI2
(dp418
g4
S'SDH'
p419
sg6
I1
sg7
I4
ssI3
(dp420
g4
S'SHH'
p421
sg6
I1
sg7
I3
sssI16
(dp422
I0
(dp423
g4
S'SDL'
p424
sg6
I1
sg7
I7
ssI1
(dp425
g4
S'BOH'
p426
sg6
I0
sg7
I6
ssI2
(dp427
g4
S'SHH'
p428
sg6
I1
sg7
I5
ssI3
(dp429
g4
S'PDL'
p430
sg6
I1
sg7
I4
sssI17
(dp431
I0
(dp432
g4
S'SHH'
p433
sg6
I1
sg7
I8
ssI1
(dp434
g4
S'BOL'
p435
sg6
I0
sg7
I7
ssI2
(dp436
g4
S'SDH'
p437
sg6
I1
sg7
I6
ssI3
(dp438
g4
S'PDL'
p439
sg6
I0
sg7
I5
ssssI14
(dp440
I0
(dp441
I0
(dp442
g4
S'SHH'
p443
sg6
I1
sg7
I0
ssI1
(dp444
g4
S'SDL'
p445
sg6
I0
sg7
I0
ssI2
(dp446
g4
S'PDL'
p447
sg6
I1
sg7
I0
ssI3
(dp448
g4
S'BOH'
p449
sg6
I1
sg7
I0
sssI1
(dp450
I0
(dp451
g4
S'BOH'
p452
sg6
I0
sg7
I1
ssI1
(dp453
g4
S'SHL'
p454
sg6
I0
sg7
I1
ssI2
(dp455
g4
S'PDL'
p456
sg6
I0
sg7
I1
ssI3
(dp457
g4
S'SDH'
p458
sg6
I0
sg7
I1
sssI2
(dp459
I0
(dp460
g4
S'SDH'
p461
sg6
I1
sg7
I2
ssI1
(dp462
g4
S'SHH'
p463
sg6
I0
sg7
I2
ssI2
(dp464
g4
S'PDL'
p465
sg6
I1
sg7
I2
ssI3
(dp466
g4
S'BOL'
p467
sg6
I1
sg7
I2
sssI3
(dp468
I0
(dp469
g4
S'SDL'
p470
sg6
I0
sg7
I3
ssI1
(dp471
g4
S'SHL'
p472
sg6
I0
sg7
I3
ssI2
(dp473
g4
S'PDL'
p474
sg6
I1
sg7
I3
ssI3
(dp475
g4
S'BOH'
p476
sg6
I0
sg7
I3
sssI4
(dp477
I0
(dp478
g4
S'BOL'
p479
sg6
I0
sg7
I4
ssI1
(dp480
g4
S'SDH'
p481
sg6
I0
sg7
I4
ssI2
(dp482
g4
S'SHL'
p483
sg6
I0
sg7
I4
ssI3
(dp484
g4
S'PDH'
p485
sg6
I1
sg7
I4
sssI5
(dp486
I0
(dp487
g4
S'SHH'
p488
sg6
I0
sg7
I5
ssI1
(dp489
g4
S'SDL'
p490
sg6
I1
sg7
I5
ssI2
(dp491
g4
S'BOL'
p492
sg6
I0
sg7
I5
ssI3
(dp493
g4
S'PDH'
p494
sg6
I0
sg7
I5
sssI6
(dp495
I0
(dp496
g4
S'PDH'
p497
sg6
I0
sg7
I6
ssI1
(dp498
g4
S'SDL'
p499
sg6
I0
sg7
I6
ssI2
(dp500
g4
S'SHL'
p501
sg6
I1
sg7
I6
ssI3
(dp502
g4
S'BOH'
p503
sg6
I1
sg7
I6
sssI7
(dp504
I0
(dp505
g4
S'SHH'
p506
sg6
I0
sg7
I0
ssI1
(dp507
g4
S'SDL'
p508
sg6
I1
sg7
I6
ssI2
(dp509
g4
S'BOL'
p510
sg6
I1
sg7
I5
ssI3
(dp511
g4
S'PDH'
p512
sg6
I0
sg7
I4
sssI8
(dp513
I0
(dp514
g4
S'BOH'
p515
sg6
I1
sg7
I1
ssI1
(dp516
g4
S'SDL'
p517
sg6
I1
sg7
I0
ssI2
(dp518
g4
S'SHL'
p519
sg6
I0
sg7
I6
ssI3
(dp520
g4
S'PDH'
p521
sg6
I1
sg7
I5
sssI9
(dp522
I0
(dp523
g4
S'SDH'
p524
sg6
I0
sg7
I2
ssI1
(dp525
g4
S'SHL'
p526
sg6
I1
sg7
I1
ssI2
(dp527
g4
S'PDL'
p528
sg6
I0
sg7
I0
ssI3
(dp529
g4
S'BOH'
p530
sg6
I0
sg7
I6
sssI10
(dp531
I0
(dp532
g4
S'SDL'
p533
sg6
I1
sg7
I3
ssI1
(dp534
g4
S'SHH'
p535
sg6
I1
sg7
I2
ssI2
(dp536
g4
S'PDL'
p537
sg6
I1
sg7
I1
ssI3
(dp538
g4
S'BOH'
p539
sg6
I0
sg7
I0
sssI11
(dp540
I0
(dp541
g4
S'BOL'
p542
sg6
I1
sg7
I4
ssI1
(dp543
g4
S'SHL'
p544
sg6
I1
sg7
I3
ssI2
(dp545
g4
S'PDL'
p546
sg6
I0
sg7
I2
ssI3
(dp547
g4
S'SDH'
p548
sg6
I1
sg7
I1
sssI12
(dp549
I0
(dp550
g4
S'SHH'
p551
sg6
I1
sg7
I5
ssI1
(dp552
g4
S'SDH'
p553
sg6
I1
sg7
I4
ssI2
(dp554
g4
S'PDL'
p555
sg6
I0
sg7
I3
ssI3
(dp556
g4
S'BOL'
p557
sg6
I0
sg7
I2
sssI13
(dp558
I0
(dp559
g4
S'PDH'
p560
sg6
I1
sg7
I6
ssI1
(dp561
g4
S'SDL'
p562
sg6
I0
sg7
I5
ssI2
(dp563
g4
S'SHL'
p564
sg6
I1
sg7
I4
ssI3
(dp565
g4
S'BOH'
p566
sg6
I1
sg7
I3
ssssI16
(dp567
I0
(dp568
I0
(dp569
g4
S'BOH'
p570
sg6
I0
sg7
I0
ssI1
(dp571
g4
S'PDL'
p572
sg6
I0
sg7
I0
ssI2
(dp573
g4
S'SDH'
p574
sg6
I0
sg7
I0
ssI3
(dp575
g4
S'SHL'
p576
sg6
I1
sg7
I0
sssI1
(dp577
I0
(dp578
g4
S'SDH'
p579
sg6
I0
sg7
I1
ssI1
(dp580
g4
S'PDL'
p581
sg6
I1
sg7
I1
ssI2
(dp582
g4
S'BOL'
p583
sg6
I0
sg7
I1
ssI3
(dp584
g4
S'SHH'
p585
sg6
I1
sg7
I1
sssI2
(dp586
I0
(dp587
g4
S'SHH'
p588
sg6
I0
sg7
I2
ssI1
(dp589
g4
S'SDH'
p590
sg6
I0
sg7
I2
ssI2
(dp591
g4
S'PDL'
p592
sg6
I1
sg7
I2
ssI3
(dp593
g4
S'BOL'
p594
sg6
I1
sg7
I2
sssI3
(dp595
I0
(dp596
g4
S'PDH'
p597
sg6
I1
sg7
I3
ssI1
(dp598
g4
S'SDL'
p599
sg6
I1
sg7
I3
ssI2
(dp600
g4
S'SHH'
p601
sg6
I0
sg7
I3
ssI3
(dp602
g4
S'BOH'
p603
sg6
I1
sg7
I3
sssI4
(dp604
I0
(dp605
g4
S'BOH'
p606
sg6
I1
sg7
I4
ssI1
(dp607
g4
S'PDL'
p608
sg6
I0
sg7
I4
ssI2
(dp609
g4
S'SDL'
p610
sg6
I1
sg7
I4
ssI3
(dp611
g4
S'SHH'
p612
sg6
I0
sg7
I4
sssI5
(dp613
I0
(dp614
g4
S'SDH'
p615
sg6
I1
sg7
I5
ssI1
(dp616
g4
S'PDH'
p617
sg6
I1
sg7
I5
ssI2
(dp618
g4
S'BOL'
p619
sg6
I1
sg7
I5
ssI3
(dp620
g4
S'SHL'
p621
sg6
I0
sg7
I5
sssI6
(dp622
I0
(dp623
g4
S'SHL'
p624
sg6
I1
sg7
I6
ssI1
(dp625
g4
S'SDL'
p626
sg6
I1
sg7
I6
ssI2
(dp627
g4
S'PDH'
p628
sg6
I0
sg7
I6
ssI3
(dp629
g4
S'BOH'
p630
sg6
I0
sg7
I6
sssI7
(dp631
I0
(dp632
g4
S'PDH'
p633
sg6
I1
sg7
I7
ssI1
(dp634
g4
S'SDL'
p635
sg6
I0
sg7
I7
ssI2
(dp636
g4
S'SHL'
p637
sg6
I1
sg7
I7
ssI3
(dp638
g4
S'BOL'
p639
sg6
I0
sg7
I7
sssI8
(dp640
I0
(dp641
g4
S'BOH'
p642
sg6
I1
sg7
I0
ssI1
(dp643
g4
S'SDL'
p644
sg6
I1
sg7
I7
ssI2
(dp645
g4
S'PDH'
p646
sg6
I1
sg7
I6
ssI3
(dp647
g4
S'SHL'
p648
sg6
I1
sg7
I5
sssI9
(dp649
I0
(dp650
g4
S'SDH'
p651
sg6
I1
sg7
I1
ssI1
(dp652
g4
S'PDL'
p653
sg6
I1
sg7
I0
ssI2
(dp654
g4
S'SHL'
p655
sg6
I0
sg7
I7
ssI3
(dp656
g4
S'BOH'
p657
sg6
I1
sg7
I6
sssI10
(dp658
I0
(dp659
g4
S'SHH'
p660
sg6
I1
sg7
I2
ssI1
(dp661
g4
S'PDL'
p662
sg6
I0
sg7
I1
ssI2
(dp663
g4
S'SDH'
p664
sg6
I1
sg7
I0
ssI3
(dp665
g4
S'BOL'
p666
sg6
I1
sg7
I7
sssI11
(dp667
I0
(dp668
g4
S'PDH'
p669
sg6
I0
sg7
I3
ssI1
(dp670
g4
S'SDH'
p671
sg6
I1
sg7
I2
ssI2
(dp672
g4
S'BOL'
p673
sg6
I1
sg7
I1
ssI3
(dp674
g4
S'SHL'
p675
sg6
I0
sg7
I0
sssI12
(dp676
I0
(dp677
g4
S'BOH'
p678
sg6
I0
sg7
I4
ssI1
(dp679
g4
S'SDL'
p680
sg6
I0
sg7
I3
ssI2
(dp681
g4
S'PDL'
p682
sg6
I0
sg7
I2
ssI3
(dp683
g4
S'SHH'
p684
sg6
I0
sg7
I1
sssI13
(dp685
I0
(dp686
g4
S'SDH'
p687
sg6
I0
sg7
I5
ssI1
(dp688
g4
S'PDL'
p689
sg6
I1
sg7
I4
ssI2
(dp690
g4
S'SHH'
p691
sg6
I1
sg7
I3
ssI3
(dp692
g4
S'BOL'
p693
sg6
I0
sg7
I2
sssI14
(dp694
I0
(dp695
g4
S'SHL'
p696
sg6
I0
sg7
I6
ssI1
(dp697
g4
S'PDH'
p698
sg6
I0
sg7
I5
ssI2
(dp699
g4
S'SDL'
p700
sg6
I0
sg7
I4
ssI3
(dp701
g4
S'BOH'
p702
sg6
I0
sg7
I3
sssI15
(dp703
I0
(dp704
g4
S'PDH'
p705
sg6
I0
sg7
I7
ssI1
(dp706
g4
S'SDL'
p707
sg6
I0
sg7
I6
ssI2
(dp708
g4
S'BOL'
p709
sg6
I0
sg7
I5
ssI3
(dp710
g4
S'SHH'
p711
sg6
I1
sg7
I4
ssssS'supergameLengths'
p712
(dp713
I0
I85
sI1
I110
sI2
I94
sI3
I123
ssS'games'
p714
(dp715
S'SDH'
p716
(dp717
I1
(dp718
I1
(lp719
I20
aI20
asI2
(lp720
I20
aI20
assI2
(dp721
I1
(lp722
I41
aI39
asI2
(lp723
I39
aI41
asssS'BOH'
p724
(dp725
I1
(dp726
I1
(lp727
I10
aI10
asI2
(lp728
I11
aI49
assI2
(dp729
I1
(lp730
I49
aI11
asI2
(lp731
I10
aI10
asssS'SDL'
p732
(dp733
I1
(dp734
I1
(lp735
I20
aI20
asI2
(lp736
I20
aI20
assI2
(dp737
I1
(lp738
I59
aI21
asI2
(lp739
I21
aI59
asssS'PDL'
p740
(dp741
I1
(dp742
I1
(lp743
I30
aI30
asI2
(lp744
I19
aI31
assI2
(dp745
I1
(lp746
I31
aI19
asI2
(lp747
I20
aI20
asssS'BOL'
p748
(dp749
I1
(dp750
I1
(lp751
I10
aI10
asI2
(lp752
I29
aI31
assI2
(dp753
I1
(lp754
I31
aI29
asI2
(lp755
I10
aI10
asssS'PDH'
p756
(dp757
I1
(dp758
I1
(lp759
I30
aI30
asI2
(lp760
I1
aI49
assI2
(dp761
I1
(lp762
I49
aI1
asI2
(lp763
I20
aI20
asssS'SHH'
p764
(dp765
I1
(dp766
I1
(lp767
I30
aI30
asI2
(lp768
I-9
aI29
assI2
(dp769
I1
(lp770
I29
aI-9
asI2
(lp771
I10
aI10
asssS'SHL'
p772
(dp773
I1
(dp774
I1
(lp775
I30
aI30
asI2
(lp776
I9
aI11
assI2
(dp777
I1
(lp778
I11
aI9
asI2
(lp779
I10
aI10
assssI22
(dp780
I0
(dp781
I0
(dp782
g4
S'BOH'
p783
sg6
I0
sg7
I0
ssI1
(dp784
g4
S'PDL'
p785
sg6
I0
sg7
I0
ssI2
(dp786
g4
S'SDL'
p787
sg6
I1
sg7
I0
ssI3
(dp788
g4
S'SHH'
p789
sg6
I0
sg7
I0
sssI1
(dp790
I0
(dp791
g4
S'SDH'
p792
sg6
I1
sg7
I1
ssI1
(dp793
g4
S'PDH'
p794
sg6
I1
sg7
I1
ssI2
(dp795
g4
S'BOL'
p796
sg6
I0
sg7
I1
ssI3
(dp797
g4
S'SHL'
p798
sg6
I1
sg7
I1
sssI2
(dp799
I0
(dp800
g4
S'SHL'
p801
sg6
I1
sg7
I2
ssI1
(dp802
g4
S'SDH'
p803
sg6
I0
sg7
I2
ssI2
(dp804
g4
S'PDH'
p805
sg6
I0
sg7
I2
ssI3
(dp806
g4
S'BOL'
p807
sg6
I1
sg7
I2
sssI3
(dp808
I0
(dp809
g4
S'PDL'
p810
sg6
I1
sg7
I3
ssI1
(dp811
g4
S'SDL'
p812
sg6
I0
sg7
I3
ssI2
(dp813
g4
S'SHH'
p814
sg6
I0
sg7
I3
ssI3
(dp815
g4
S'BOH'
p816
sg6
I1
sg7
I3
sssI4
(dp817
I0
(dp818
g4
S'BOH'
p819
sg6
I0
sg7
I4
ssI1
(dp820
g4
S'PDL'
p821
sg6
I0
sg7
I4
ssI2
(dp822
g4
S'SDL'
p823
sg6
I1
sg7
I4
ssI3
(dp824
g4
S'SHL'
p825
sg6
I0
sg7
I4
sssI5
(dp826
I0
(dp827
g4
S'SDH'
p828
sg6
I0
sg7
I5
ssI1
(dp829
g4
S'PDL'
p830
sg6
I0
sg7
I5
ssI2
(dp831
g4
S'BOL'
p832
sg6
I1
sg7
I5
ssI3
(dp833
g4
S'SHH'
p834
sg6
I1
sg7
I5
sssI6
(dp835
I0
(dp836
g4
S'SHH'
p837
sg6
I0
sg7
I6
ssI1
(dp838
g4
S'SDH'
p839
sg6
I1
sg7
I6
ssI2
(dp840
g4
S'BOL'
p841
sg6
I1
sg7
I6
ssI3
(dp842
g4
S'PDH'
p843
sg6
I0
sg7
I6
sssI7
(dp844
I0
(dp845
g4
S'PDH'
p846
sg6
I1
sg7
I7
ssI1
(dp847
g4
S'SDL'
p848
sg6
I1
sg7
I7
ssI2
(dp849
g4
S'BOL'
p850
sg6
I1
sg7
I7
ssI3
(dp851
g4
S'SHH'
p852
sg6
I0
sg7
I7
sssI8
(dp853
I0
(dp854
g4
S'PDH'
p855
sg6
I1
sg7
I8
ssI1
(dp856
g4
S'SDL'
p857
sg6
I1
sg7
I8
ssI2
(dp858
g4
S'BOL'
p859
sg6
I0
sg7
I8
ssI3
(dp860
g4
S'SHH'
p861
sg6
I1
sg7
I8
sssI9
(dp862
I0
(dp863
g4
S'SHL'
p864
sg6
I0
sg7
I9
ssI1
(dp865
g4
S'PDH'
p866
sg6
I0
sg7
I9
ssI2
(dp867
g4
S'SDL'
p868
sg6
I0
sg7
I9
ssI3
(dp869
g4
S'BOH'
p870
sg6
I1
sg7
I9
sssI10
(dp871
I0
(dp872
g4
S'SDH'
p873
sg6
I1
sg7
I10
ssI1
(dp874
g4
S'PDL'
p875
sg6
I1
sg7
I10
ssI2
(dp876
g4
S'SHL'
p877
sg6
I0
sg7
I10
ssI3
(dp878
g4
S'BOH'
p879
sg6
I0
sg7
I10
sssI11
(dp880
I0
(dp881
g4
S'BOH'
p882
sg6
I1
sg7
I0
ssI1
(dp883
g4
S'PDL'
p884
sg6
I0
sg7
I10
ssI2
(dp885
g4
S'SDL'
p886
sg6
I1
sg7
I9
ssI3
(dp887
g4
S'SHH'
p888
sg6
I0
sg7
I8
sssI12
(dp889
I0
(dp890
g4
S'SDH'
p891
sg6
I0
sg7
I1
ssI1
(dp892
g4
S'PDL'
p893
sg6
I1
sg7
I0
ssI2
(dp894
g4
S'SHL'
p895
sg6
I1
sg7
I10
ssI3
(dp896
g4
S'BOH'
p897
sg6
I0
sg7
I9
sssI13
(dp898
I0
(dp899
g4
S'SHL'
p900
sg6
I0
sg7
I2
ssI1
(dp901
g4
S'PDH'
p902
sg6
I0
sg7
I1
ssI2
(dp903
g4
S'SDL'
p904
sg6
I0
sg7
I0
ssI3
(dp905
g4
S'BOH'
p906
sg6
I1
sg7
I10
sssI14
(dp907
I0
(dp908
g4
S'PDL'
p909
sg6
I0
sg7
I3
ssI1
(dp910
g4
S'SDH'
p911
sg6
I1
sg7
I2
ssI2
(dp912
g4
S'BOL'
p913
sg6
I1
sg7
I1
ssI3
(dp914
g4
S'SHH'
p915
sg6
I1
sg7
I0
sssI15
(dp916
I0
(dp917
g4
S'BOH'
p918
sg6
I1
sg7
I4
ssI1
(dp919
g4
S'SDL'
p920
sg6
I1
sg7
I3
ssI2
(dp921
g4
S'PDH'
p922
sg6
I1
sg7
I2
ssI3
(dp923
g4
S'SHL'
p924
sg6
I0
sg7
I1
sssI16
(dp925
I0
(dp926
g4
S'SDH'
p927
sg6
I1
sg7
I5
ssI1
(dp928
g4
S'PDL'
p929
sg6
I1
sg7
I4
ssI2
(dp930
g4
S'SHH'
p931
sg6
I1
sg7
I3
ssI3
(dp932
g4
S'BOL'
p933
sg6
I0
sg7
I2
sssI17
(dp934
I0
(dp935
g4
S'SHH'
p936
sg6
I1
sg7
I6
ssI1
(dp937
g4
S'PDL'
p938
sg6
I1
sg7
I5
ssI2
(dp939
g4
S'SDL'
p940
sg6
I0
sg7
I4
ssI3
(dp941
g4
S'BOH'
p942
sg6
I0
sg7
I3
sssI18
(dp943
I0
(dp944
g4
S'PDH'
p945
sg6
I0
sg7
I7
ssI1
(dp946
g4
S'SDH'
p947
sg6
I0
sg7
I6
ssI2
(dp948
g4
S'BOL'
p949
sg6
I0
sg7
I5
ssI3
(dp950
g4
S'SHL'
p951
sg6
I1
sg7
I4
sssI19
(dp952
I0
(dp953
g4
S'PDH'
p954
sg6
I0
sg7
I8
ssI1
(dp955
g4
S'SDL'
p956
sg6
I0
sg7
I7
ssI2
(dp957
g4
S'BOL'
p958
sg6
I0
sg7
I6
ssI3
(dp959
g4
S'SHH'
p960
sg6
I0
sg7
I5
sssI20
(dp961
I0
(dp962
g4
S'SHL'
p963
sg6
I1
sg7
I9
ssI1
(dp964
g4
S'SDL'
p965
sg6
I0
sg7
I8
ssI2
(dp966
g4
S'BOL'
p967
sg6
I0
sg7
I7
ssI3
(dp968
g4
S'PDH'
p969
sg6
I1
sg7
I6
sssI21
(dp970
I0
(dp971
g4
S'SDH'
p972
sg6
I0
sg7
I10
ssI1
(dp973
g4
S'PDH'
p974
sg6
I1
sg7
I9
ssI2
(dp975
g4
S'BOL'
p976
sg6
I1
sg7
I8
ssI3
(dp977
g4
S'SHH'
p978
sg6
I1
sg7
I7
ssssI24
(dp979
I0
(dp980
I0
(dp981
g4
S'BOH'
p982
sg6
I0
sg7
I0
ssI1
(dp983
g4
S'SHL'
p984
sg6
I1
sg7
I0
ssI2
(dp985
g4
S'PDH'
p986
sg6
I0
sg7
I0
ssI3
(dp987
g4
S'SDL'
p988
sg6
I1
sg7
I0
sssI1
(dp989
I0
(dp990
g4
S'SDH'
p991
sg6
I0
sg7
I1
ssI1
(dp992
g4
S'BOL'
p993
sg6
I0
sg7
I1
ssI2
(dp994
g4
S'SHL'
p995
sg6
I1
sg7
I1
ssI3
(dp996
g4
S'PDL'
p997
sg6
I1
sg7
I1
sssI2
(dp998
I0
(dp999
g4
S'SHH'
p1000
sg6
I0
sg7
I2
ssI1
(dp1001
g4
S'BOL'
p1002
sg6
I0
sg7
I2
ssI2
(dp1003
g4
S'SDH'
p1004
sg6
I0
sg7
I2
ssI3
(dp1005
g4
S'PDL'
p1006
sg6
I1
sg7
I2
sssI3
(dp1007
I0
(dp1008
g4
S'PDH'
p1009
sg6
I0
sg7
I3
ssI1
(dp1010
g4
S'BOL'
p1011
sg6
I1
sg7
I3
ssI2
(dp1012
g4
S'SHH'
p1013
sg6
I0
sg7
I3
ssI3
(dp1014
g4
S'SDH'
p1015
sg6
I1
sg7
I3
sssI4
(dp1016
I0
(dp1017
g4
S'SHH'
p1018
sg6
I1
sg7
I4
ssI1
(dp1019
g4
S'BOL'
p1020
sg6
I0
sg7
I4
ssI2
(dp1021
g4
S'PDL'
p1022
sg6
I1
sg7
I4
ssI3
(dp1023
g4
S'SDH'
p1024
sg6
I1
sg7
I4
sssI5
(dp1025
I0
(dp1026
g4
S'SDH'
p1027
sg6
I1
sg7
I5
ssI1
(dp1028
g4
S'SHL'
p1029
sg6
I0
sg7
I5
ssI2
(dp1030
g4
S'BOH'
p1031
sg6
I0
sg7
I5
ssI3
(dp1032
g4
S'PDL'
p1033
sg6
I0
sg7
I5
sssI6
(dp1034
I0
(dp1035
g4
S'BOH'
p1036
sg6
I1
sg7
I6
ssI1
(dp1037
g4
S'PDL'
p1038
sg6
I1
sg7
I6
ssI2
(dp1039
g4
S'SHH'
p1040
sg6
I1
sg7
I6
ssI3
(dp1041
g4
S'SDL'
p1042
sg6
I1
sg7
I6
sssI7
(dp1043
I0
(dp1044
g4
S'SHL'
p1045
sg6
I0
sg7
I7
ssI1
(dp1046
g4
S'SDL'
p1047
sg6
I1
sg7
I7
ssI2
(dp1048
g4
S'PDH'
p1049
sg6
I1
sg7
I7
ssI3
(dp1050
g4
S'BOH'
p1051
sg6
I1
sg7
I7
sssI8
(dp1052
I0
(dp1053
g4
S'BOH'
p1054
sg6
I0
sg7
I8
ssI1
(dp1055
g4
S'SHL'
p1056
sg6
I0
sg7
I8
ssI2
(dp1057
g4
S'PDH'
p1058
sg6
I0
sg7
I8
ssI3
(dp1059
g4
S'SDL'
p1060
sg6
I1
sg7
I8
sssI9
(dp1061
I0
(dp1062
g4
S'BOH'
p1063
sg6
I0
sg7
I9
ssI1
(dp1064
g4
S'SDL'
p1065
sg6
I1
sg7
I9
ssI2
(dp1066
g4
S'SHH'
p1067
sg6
I0
sg7
I9
ssI3
(dp1068
g4
S'PDL'
p1069
sg6
I0
sg7
I9
sssI10
(dp1070
I0
(dp1071
g4
S'SHL'
p1072
sg6
I0
sg7
I10
ssI1
(dp1073
g4
S'BOL'
p1074
sg6
I1
sg7
I10
ssI2
(dp1075
g4
S'SDH'
p1076
sg6
I1
sg7
I10
ssI3
(dp1077
g4
S'PDH'
p1078
sg6
I0
sg7
I10
sssI11
(dp1079
I0
(dp1080
g4
S'PDH'
p1081
sg6
I0
sg7
I11
ssI1
(dp1082
g4
S'SHH'
p1083
sg6
I0
sg7
I11
ssI2
(dp1084
g4
S'BOL'
p1085
sg6
I1
sg7
I11
ssI3
(dp1086
g4
S'SDL'
p1087
sg6
I1
sg7
I11
sssI12
(dp1088
I0
(dp1089
g4
S'BOH'
p1090
sg6
I1
sg7
I0
ssI1
(dp1091
g4
S'SHH'
p1092
sg6
I1
sg7
I11
ssI2
(dp1093
g4
S'SDH'
p1094
sg6
I0
sg7
I10
ssI3
(dp1095
g4
S'PDL'
p1096
sg6
I1
sg7
I9
sssI13
(dp1097
I0
(dp1098
g4
S'SDH'
p1099
sg6
I1
sg7
I1
ssI1
(dp1100
g4
S'SHL'
p1101
sg6
I0
sg7
I0
ssI2
(dp1102
g4
S'BOL'
p1103
sg6
I0
sg7
I11
ssI3
(dp1104
g4
S'PDH'
p1105
sg6
I1
sg7
I10
sssI14
(dp1106
I0
(dp1107
g4
S'SHH'
p1108
sg6
I1
sg7
I2
ssI1
(dp1109
g4
S'BOL'
p1110
sg6
I1
sg7
I1
ssI2
(dp1111
g4
S'PDH'
p1112
sg6
I1
sg7
I0
ssI3
(dp1113
g4
S'SDL'
p1114
sg6
I0
sg7
I11
sssI15
(dp1115
I0
(dp1116
g4
S'PDH'
p1117
sg6
I1
sg7
I3
ssI1
(dp1118
g4
S'BOL'
p1119
sg6
I1
sg7
I2
ssI2
(dp1120
g4
S'SHL'
p1121
sg6
I0
sg7
I1
ssI3
(dp1122
g4
S'SDL'
p1123
sg6
I0
sg7
I0
sssI16
(dp1124
I0
(dp1125
g4
S'SHH'
p1126
sg6
I0
sg7
I4
ssI1
(dp1127
g4
S'BOL'
p1128
sg6
I0
sg7
I3
ssI2
(dp1129
g4
S'SDH'
p1130
sg6
I1
sg7
I2
ssI3
(dp1131
g4
S'PDL'
p1132
sg6
I0
sg7
I1
sssI17
(dp1133
I0
(dp1134
g4
S'SDH'
p1135
sg6
I0
sg7
I5
ssI1
(dp1136
g4
S'BOL'
p1137
sg6
I1
sg7
I4
ssI2
(dp1138
g4
S'SHH'
p1139
sg6
I1
sg7
I3
ssI3
(dp1140
g4
S'PDL'
p1141
sg6
I0
sg7
I2
sssI18
(dp1142
I0
(dp1143
g4
S'BOH'
p1144
sg6
I0
sg7
I6
ssI1
(dp1145
g4
S'SHL'
p1146
sg6
I1
sg7
I5
ssI2
(dp1147
g4
S'PDL'
p1148
sg6
I0
sg7
I4
ssI3
(dp1149
g4
S'SDH'
p1150
sg6
I0
sg7
I3
sssI19
(dp1151
I0
(dp1152
g4
S'SHL'
p1153
sg6
I1
sg7
I7
ssI1
(dp1154
g4
S'PDL'
p1155
sg6
I0
sg7
I6
ssI2
(dp1156
g4
S'BOH'
p1157
sg6
I1
sg7
I5
ssI3
(dp1158
g4
S'SDH'
p1159
sg6
I0
sg7
I4
sssI20
(dp1160
I0
(dp1161
g4
S'BOH'
p1162
sg6
I1
sg7
I8
ssI1
(dp1163
g4
S'SDL'
p1164
sg6
I0
sg7
I7
ssI2
(dp1165
g4
S'SHH'
p1166
sg6
I0
sg7
I6
ssI3
(dp1167
g4
S'PDL'
p1168
sg6
I1
sg7
I5
sssI21
(dp1169
I0
(dp1170
g4
S'BOH'
p1171
sg6
I1
sg7
I9
ssI1
(dp1172
g4
S'SHL'
p1173
sg6
I1
sg7
I8
ssI2
(dp1174
g4
S'PDH'
p1175
sg6
I0
sg7
I7
ssI3
(dp1176
g4
S'SDL'
p1177
sg6
I0
sg7
I6
sssI22
(dp1178
I0
(dp1179
g4
S'SHL'
p1180
sg6
I1
sg7
I10
ssI1
(dp1181
g4
S'SDL'
p1182
sg6
I0
sg7
I9
ssI2
(dp1183
g4
S'PDH'
p1184
sg6
I1
sg7
I8
ssI3
(dp1185
g4
S'BOH'
p1186
sg6
I0
sg7
I7
sssI23
(dp1187
I0
(dp1188
g4
S'PDH'
p1189
sg6
I1
sg7
I11
ssI1
(dp1190
g4
S'BOL'
p1191
sg6
I0
sg7
I10
ssI2
(dp1192
g4
S'SHH'
p1193
sg6
I1
sg7
I9
ssI3
(dp1194
g4
S'SDL'
p1195
sg6
I0
sg7
I8
ssssI20
(dp1196
I0
(dp1197
I0
(dp1198
g4
S'SDL'
p1199
sg6
I1
sg7
I0
ssI1
(dp1200
g4
S'PDL'
p1201
sg6
I1
sg7
I0
ssI2
(dp1202
g4
S'SHH'
p1203
sg6
I0
sg7
I0
ssI3
(dp1204
g4
S'BOL'
p1205
sg6
I0
sg7
I0
sssI1
(dp1206
I0
(dp1207
g4
S'SHH'
p1208
sg6
I1
sg7
I1
ssI1
(dp1209
g4
S'SDL'
p1210
sg6
I1
sg7
I1
ssI2
(dp1211
g4
S'PDH'
p1212
sg6
I0
sg7
I1
ssI3
(dp1213
g4
S'BOL'
p1214
sg6
I1
sg7
I1
sssI2
(dp1215
I0
(dp1216
g4
S'BOH'
p1217
sg6
I0
sg7
I2
ssI1
(dp1218
g4
S'SHL'
p1219
sg6
I0
sg7
I2
ssI2
(dp1220
g4
S'SDL'
p1221
sg6
I1
sg7
I2
ssI3
(dp1222
g4
S'PDH'
p1223
sg6
I0
sg7
I2
sssI3
(dp1224
I0
(dp1225
g4
S'SDH'
p1226
sg6
I1
sg7
I3
ssI1
(dp1227
g4
S'SHH'
p1228
sg6
I1
sg7
I3
ssI2
(dp1229
g4
S'BOL'
p1230
sg6
I0
sg7
I3
ssI3
(dp1231
g4
S'PDL'
p1232
sg6
I1
sg7
I3
sssI4
(dp1233
I0
(dp1234
g4
S'PDH'
p1235
sg6
I1
sg7
I4
ssI1
(dp1236
g4
S'SDH'
p1237
sg6
I1
sg7
I4
ssI2
(dp1238
g4
S'SHL'
p1239
sg6
I1
sg7
I4
ssI3
(dp1240
g4
S'BOL'
p1241
sg6
I0
sg7
I4
sssI5
(dp1242
I0
(dp1243
g4
S'SHL'
p1244
sg6
I0
sg7
I5
ssI1
(dp1245
g4
S'BOH'
p1246
sg6
I0
sg7
I5
ssI2
(dp1247
g4
S'PDH'
p1248
sg6
I1
sg7
I5
ssI3
(dp1249
g4
S'SDL'
p1250
sg6
I1
sg7
I5
sssI6
(dp1251
I0
(dp1252
g4
S'SDH'
p1253
sg6
I0
sg7
I6
ssI1
(dp1254
g4
S'SHL'
p1255
sg6
I0
sg7
I6
ssI2
(dp1256
g4
S'BOH'
p1257
sg6
I0
sg7
I6
ssI3
(dp1258
g4
S'PDL'
p1259
sg6
I1
sg7
I6
sssI7
(dp1260
I0
(dp1261
g4
S'SDH'
p1262
sg6
I0
sg7
I7
ssI1
(dp1263
g4
S'SHL'
p1264
sg6
I1
sg7
I7
ssI2
(dp1265
g4
S'BOH'
p1266
sg6
I0
sg7
I7
ssI3
(dp1267
g4
S'PDH'
p1268
sg6
I0
sg7
I7
sssI8
(dp1269
I0
(dp1270
g4
S'PDL'
p1271
sg6
I0
sg7
I8
ssI1
(dp1272
g4
S'SDL'
p1273
sg6
I0
sg7
I8
ssI2
(dp1274
g4
S'SHH'
p1275
sg6
I0
sg7
I8
ssI3
(dp1276
g4
S'BOH'
p1277
sg6
I1
sg7
I8
sssI9
(dp1278
I0
(dp1279
g4
S'SHH'
p1280
sg6
I0
sg7
I9
ssI1
(dp1281
g4
S'BOL'
p1282
sg6
I0
sg7
I9
ssI2
(dp1283
g4
S'SDH'
p1284
sg6
I1
sg7
I9
ssI3
(dp1285
g4
S'PDL'
p1286
sg6
I0
sg7
I9
sssI10
(dp1287
I0
(dp1288
g4
S'SDL'
p1289
sg6
I0
sg7
I0
ssI1
(dp1290
g4
S'BOL'
p1291
sg6
I1
sg7
I9
ssI2
(dp1292
g4
S'SHH'
p1293
sg6
I1
sg7
I8
ssI3
(dp1294
g4
S'PDH'
p1295
sg6
I1
sg7
I7
sssI11
(dp1296
I0
(dp1297
g4
S'SHH'
p1298
sg6
I0
sg7
I1
ssI1
(dp1299
g4
S'PDL'
p1300
sg6
I0
sg7
I0
ssI2
(dp1301
g4
S'SDH'
p1302
sg6
I0
sg7
I9
ssI3
(dp1303
g4
S'BOH'
p1304
sg6
I0
sg7
I8
sssI12
(dp1305
I0
(dp1306
g4
S'BOH'
p1307
sg6
I1
sg7
I2
ssI1
(dp1308
g4
S'SDL'
p1309
sg6
I0
sg7
I1
ssI2
(dp1310
g4
S'SHH'
p1311
sg6
I1
sg7
I0
ssI3
(dp1312
g4
S'PDL'
p1313
sg6
I1
sg7
I9
sssI13
(dp1314
I0
(dp1315
g4
S'SDH'
p1316
sg6
I0
sg7
I3
ssI1
(dp1317
g4
S'SHL'
p1318
sg6
I1
sg7
I2
ssI2
(dp1319
g4
S'PDH'
p1320
sg6
I1
sg7
I1
ssI3
(dp1321
g4
S'BOL'
p1322
sg6
I1
sg7
I0
sssI14
(dp1323
I0
(dp1324
g4
S'PDH'
p1325
sg6
I0
sg7
I4
ssI1
(dp1326
g4
S'SHH'
p1327
sg6
I0
sg7
I3
ssI2
(dp1328
g4
S'SDL'
p1329
sg6
I0
sg7
I2
ssI3
(dp1330
g4
S'BOL'
p1331
sg6
I0
sg7
I1
sssI15
(dp1332
I0
(dp1333
g4
S'SHL'
p1334
sg6
I1
sg7
I5
ssI1
(dp1335
g4
S'SDH'
p1336
sg6
I0
sg7
I4
ssI2
(dp1337
g4
S'BOL'
p1338
sg6
I1
sg7
I3
ssI3
(dp1339
g4
S'PDH'
p1340
sg6
I1
sg7
I2
sssI16
(dp1341
I0
(dp1342
g4
S'SDH'
p1343
sg6
I1
sg7
I6
ssI1
(dp1344
g4
S'BOH'
p1345
sg6
I1
sg7
I5
ssI2
(dp1346
g4
S'SHL'
p1347
sg6
I0
sg7
I4
ssI3
(dp1348
g4
S'PDL'
p1349
sg6
I0
sg7
I3
sssI17
(dp1350
I0
(dp1351
g4
S'SDH'
p1352
sg6
I1
sg7
I7
ssI1
(dp1353
g4
S'SHL'
p1354
sg6
I1
sg7
I6
ssI2
(dp1355
g4
S'PDH'
p1356
sg6
I0
sg7
I5
ssI3
(dp1357
g4
S'BOL'
p1358
sg6
I1
sg7
I4
sssI18
(dp1359
I0
(dp1360
g4
S'PDL'
p1361
sg6
I1
sg7
I8
ssI1
(dp1362
g4
S'SHL'
p1363
sg6
I0
sg7
I7
ssI2
(dp1364
g4
S'BOH'
p1365
sg6
I1
sg7
I6
ssI3
(dp1366
g4
S'SDL'
p1367
sg6
I0
sg7
I5
sssI19
(dp1368
I0
(dp1369
g4
S'SHH'
p1370
sg6
I1
sg7
I9
ssI1
(dp1371
g4
S'SDL'
p1372
sg6
I1
sg7
I8
ssI2
(dp1373
g4
S'BOH'
p1374
sg6
I1
sg7
I7
ssI3
(dp1375
g4
S'PDL'
p1376
sg6
I0
sg7
I6
ssss.