(dp0
I8
(dp1
S'pays'
p2
(dp3
I0
(lp4
S'H'
p5
aS'L'
p6
ag6
ag5
asI1
(lp7
g5
ag5
ag6
ag6
asI2
(lp8
g5
ag6
ag6
ag5
asI3
(lp9
g5
ag5
ag6
ag6
asI4
(lp10
g5
ag5
ag6
ag6
asI5
(lp11
g5
ag6
ag6
ag5
asI6
(lp12
g5
ag5
ag6
ag6
asI7
(lp13
g5
ag6
ag6
ag5
assS'pairs'
p14
(dp15
I0
(lp16
I4
aI5
aI6
aI7
asI1
(lp17
I5
aI6
aI7
aI4
asI2
(lp18
I6
aI7
aI4
aI5
asI3
(lp19
I7
aI4
aI5
aI6
asI4
(lp20
I0
aI3
aI2
aI1
asI5
(lp21
I1
aI0
aI3
aI2
asI6
(lp22
I2
aI1
aI0
aI3
asI7
(lp23
I3
aI2
aI1
aI0
assS'games'
p24
(dp25
I0
(lp26
S'PD'
p27
aS'BO'
p28
aS'SD'
p29
aS'SH'
p30
asI1
(lp31
g30
ag28
ag27
ag29
asI2
(lp32
g27
ag28
ag30
ag29
asI3
(lp33
g29
ag28
ag27
ag30
asI4
(lp34
g27
ag28
ag30
ag29
asI5
(lp35
g30
ag28
ag27
ag29
asI6
(lp36
g27
ag28
ag29
ag30
asI7
(lp37
g29
ag28
ag27
ag30
assS'groups'
p38
(dp39
I0
(lp40
I0
aI0
aI0
aI0
asI1
(lp41
I1
aI1
aI1
aI1
asI2
(lp42
I2
aI2
aI2
aI2
asI3
(lp43
I3
aI3
aI3
aI3
asI4
(lp44
I0
aI3
aI2
aI1
asI5
(lp45
I1
aI0
aI3
aI2
asI6
(lp46
I2
aI1
aI0
aI3
asI7
(lp47
I3
aI2
aI1
aI0
assS'roles'
p48
(dp49
I0
(lp50
I0
aI1
aI1
aI0
asI1
(lp51
I1
aI0
aI0
aI0
asI2
(lp52
I0
aI0
aI0
aI0
asI3
(lp53
I1
aI0
aI1
aI0
asI4
(lp54
I1
aI1
aI1
aI1
asI5
(lp55
I0
aI0
aI0
aI1
asI6
(lp56
I1
aI1
aI0
aI1
asI7
(lp57
I0
aI1
aI1
aI1
asssI10
(dp58
g2
(dp59
I0
(lp60
g6
ag6
ag6
ag6
asI1
(lp61
g6
ag5
ag5
ag5
asI2
(lp62
g6
ag6
ag6
ag5
asI3
(lp63
g5
ag5
ag6
ag6
asI4
(lp64
g5
ag5
ag6
ag6
asI5
(lp65
g6
ag5
ag6
ag5
asI6
(lp66
g6
ag6
ag6
ag6
asI7
(lp67
g6
ag5
ag6
ag6
asI8
(lp68
g5
ag6
ag5
ag6
asI9
(lp69
g5
ag5
ag6
ag5
assg14
(dp70
I0
(lp71
I5
aI6
aI7
aI8
asI1
(lp72
I6
aI7
aI8
aI9
asI2
(lp73
I7
aI8
aI9
aI5
asI3
(lp74
I8
aI9
aI5
aI6
asI4
(lp75
I9
aI5
aI6
aI7
asI5
(lp76
I0
aI4
aI3
aI2
asI6
(lp77
I1
aI0
aI4
aI3
asI7
(lp78
I2
aI1
aI0
aI4
asI8
(lp79
I3
aI2
aI1
aI0
asI9
(lp80
I4
aI3
aI2
aI1
assg24
(dp81
I0
(lp82
g29
ag30
ag27
ag28
asI1
(lp83
g27
ag29
ag30
ag28
asI2
(lp84
g30
ag29
ag27
ag28
asI3
(lp85
g27
ag29
ag30
ag28
asI4
(lp86
g30
ag27
ag29
ag28
asI5
(lp87
g29
ag27
ag30
ag28
asI6
(lp88
g27
ag30
ag29
ag28
asI7
(lp89
g30
ag29
ag27
ag28
asI8
(lp90
g27
ag29
ag30
ag28
asI9
(lp91
g30
ag29
ag27
ag28
assg38
(dp92
I0
(lp93
I0
aI0
aI0
aI0
asI1
(lp94
I1
aI1
aI1
aI1
asI2
(lp95
I2
aI2
aI2
aI2
asI3
(lp96
I3
aI3
aI3
aI3
asI4
(lp97
I4
aI4
aI4
aI4
asI5
(lp98
I0
aI4
aI3
aI2
asI6
(lp99
I1
aI0
aI4
aI3
asI7
(lp100
I2
aI1
aI0
aI4
asI8
(lp101
I3
aI2
aI1
aI0
asI9
(lp102
I4
aI3
aI2
aI1
assg48
(dp103
I0
(lp104
I1
aI1
aI0
aI0
asI1
(lp105
I0
aI1
aI1
aI0
asI2
(lp106
I0
aI1
aI1
aI0
asI3
(lp107
I0
aI0
aI0
aI0
asI4
(lp108
I0
aI0
aI0
aI0
asI5
(lp109
I0
aI1
aI1
aI1
asI6
(lp110
I1
aI0
aI1
aI1
asI7
(lp111
I1
aI0
aI1
aI1
asI8
(lp112
I1
aI0
aI0
aI1
asI9
(lp113
I1
aI1
aI0
aI1
asssI12
(dp114
g2
(dp115
I0
(lp116
g6
ag6
ag5
ag5
asI1
(lp117
g5
ag5
ag5
ag5
asI2
(lp118
g6
ag6
ag6
ag5
asI3
(lp119
g6
ag6
ag5
ag6
asI4
(lp120
g5
ag6
ag5
ag5
asI5
(lp121
g6
ag5
ag6
ag6
asI6
(lp122
g6
ag5
ag5
ag6
asI7
(lp123
g5
ag6
ag6
ag5
asI8
(lp124
g6
ag5
ag5
ag6
asI9
(lp125
g6
ag6
ag5
ag5
asI10
(lp126
g5
ag6
ag6
ag5
asI11
(lp127
g6
ag6
ag5
ag5
assg14
(dp128
I0
(lp129
I6
aI7
aI8
aI9
asI1
(lp130
I7
aI8
aI9
aI10
asI2
(lp131
I8
aI9
aI10
aI11
asI3
(lp132
I9
aI10
aI11
aI6
asI4
(lp133
I10
aI11
aI6
aI7
asI5
(lp134
I11
aI6
aI7
aI8
asI6
(lp135
I0
aI5
aI4
aI3
asI7
(lp136
I1
aI0
aI5
aI4
asI8
(lp137
I2
aI1
aI0
aI5
asI9
(lp138
I3
aI2
aI1
aI0
asI10
(lp139
I4
aI3
aI2
aI1
asI11
(lp140
I5
aI4
aI3
aI2
assg24
(dp141
I0
(lp142
g27
ag28
ag29
ag30
asI1
(lp143
g29
ag27
ag28
ag30
asI2
(lp144
g30
ag27
ag29
ag28
asI3
(lp145
g29
ag28
ag27
ag30
asI4
(lp146
g27
ag29
ag28
ag30
asI5
(lp147
g30
ag29
ag27
ag28
asI6
(lp148
g27
ag29
ag28
ag30
asI7
(lp149
g29
ag28
ag27
ag30
asI8
(lp150
g30
ag27
ag29
ag28
asI9
(lp151
g29
ag27
ag28
ag30
asI10
(lp152
g27
ag28
ag29
ag30
asI11
(lp153
g30
ag29
ag27
ag28
assg38
(dp154
I0
(lp155
I0
aI0
aI0
aI0
asI1
(lp156
I1
aI1
aI1
aI1
asI2
(lp157
I2
aI2
aI2
aI2
asI3
(lp158
I3
aI3
aI3
aI3
asI4
(lp159
I4
aI4
aI4
aI4
asI5
(lp160
I5
aI5
aI5
aI5
asI6
(lp161
I0
aI5
aI4
aI3
asI7
(lp162
I1
aI0
aI5
aI4
asI8
(lp163
I2
aI1
aI0
aI5
asI9
(lp164
I3
aI2
aI1
aI0
asI10
(lp165
I4
aI3
aI2
aI1
asI11
(lp166
I5
aI4
aI3
aI2
assg48
(dp167
I0
(lp168
I1
aI1
aI0
aI1
asI1
(lp169
I0
aI0
aI0
aI0
asI2
(lp170
I0
aI0
aI0
aI1
asI3
(lp171
I1
aI1
aI0
aI1
asI4
(lp172
I0
aI0
aI1
aI1
asI5
(lp173
I1
aI1
aI1
aI1
asI6
(lp174
I0
aI0
aI0
aI0
asI7
(lp175
I1
aI0
aI0
aI0
asI8
(lp176
I1
aI1
aI1
aI0
asI9
(lp177
I0
aI1
aI1
aI0
asI10
(lp178
I1
aI0
aI1
aI1
asI11
(lp179
I0
aI1
aI1
aI0
asssI14
(dp180
g2
(dp181
I0
(lp182
g5
ag5
ag6
ag5
asI1
(lp183
g5
ag6
ag6
ag6
asI2
(lp184
g5
ag6
ag6
ag6
asI3
(lp185
g5
ag6
ag5
ag5
asI4
(lp186
g5
ag5
ag6
ag6
asI5
(lp187
g6
ag6
ag6
ag5
asI6
(lp188
g6
ag6
ag6
ag5
asI7
(lp189
g5
ag6
ag6
ag6
asI8
(lp190
g5
ag5
ag6
ag5
asI9
(lp191
g5
ag6
ag6
ag5
asI10
(lp192
g5
ag6
ag6
ag5
asI11
(lp193
g5
ag6
ag6
ag6
asI12
(lp194
g6
ag5
ag5
ag6
asI13
(lp195
g6
ag6
ag6
ag5
assg14
(dp196
I0
(lp197
I7
aI8
aI9
aI10
asI1
(lp198
I8
aI9
aI10
aI11
asI2
(lp199
I9
aI10
aI11
aI12
asI3
(lp200
I10
aI11
aI12
aI13
asI4
(lp201
I11
aI12
aI13
aI7
asI5
(lp202
I12
aI13
aI7
aI8
asI6
(lp203
I13
aI7
aI8
aI9
asI7
(lp204
I0
aI6
aI5
aI4
asI8
(lp205
I1
aI0
aI6
aI5
asI9
(lp206
I2
aI1
aI0
aI6
asI10
(lp207
I3
aI2
aI1
aI0
asI11
(lp208
I4
aI3
aI2
aI1
asI12
(lp209
I5
aI4
aI3
aI2
asI13
(lp210
I6
aI5
aI4
aI3
assg24
(dp211
I0
(lp212
g28
ag29
ag30
ag27
asI1
(lp213
g30
ag29
ag28
ag27
asI2
(lp214
g27
ag29
ag30
ag28
asI3
(lp215
g30
ag28
ag29
ag27
asI4
(lp216
g29
ag30
ag28
ag27
asI5
(lp217
g27
ag30
ag29
ag28
asI6
(lp218
g29
ag30
ag27
ag28
asI7
(lp219
g28
ag30
ag29
ag27
asI8
(lp220
g30
ag29
ag27
ag28
asI9
(lp221
g27
ag29
ag30
ag28
asI10
(lp222
g30
ag29
ag28
ag27
asI11
(lp223
g29
ag28
ag30
ag27
asI12
(lp224
g27
ag30
ag29
ag28
asI13
(lp225
g29
ag30
ag28
ag27
assg38
(dp226
I0
(lp227
I0
aI0
aI0
aI0
asI1
(lp228
I1
aI1
aI1
aI1
asI2
(lp229
I2
aI2
aI2
aI2
asI3
(lp230
I3
aI3
aI3
aI3
asI4
(lp231
I4
aI4
aI4
aI4
asI5
(lp232
I5
aI5
aI5
aI5
asI6
(lp233
I6
aI6
aI6
aI6
asI7
(lp234
I0
aI6
aI5
aI4
asI8
(lp235
I1
aI0
aI6
aI5
asI9
(lp236
I2
aI1
aI0
aI6
asI10
(lp237
I3
aI2
aI1
aI0
asI11
(lp238
I4
aI3
aI2
aI1
asI12
(lp239
I5
aI4
aI3
aI2
asI13
(lp240
I6
aI5
aI4
aI3
assg48
(dp241
I0
(lp242
I1
aI1
aI1
aI1
asI1
(lp243
I0
aI0
aI1
aI0
asI2
(lp244
I0
aI1
aI0
aI0
asI3
(lp245
I0
aI1
aI0
aI0
asI4
(lp246
I0
aI1
aI1
aI1
asI5
(lp247
I0
aI0
aI0
aI0
asI6
(lp248
I1
aI0
aI0
aI0
asI7
(lp249
I0
aI1
aI1
aI0
asI8
(lp250
I1
aI0
aI1
aI1
asI9
(lp251
I1
aI1
aI0
aI1
asI10
(lp252
I1
aI0
aI0
aI0
asI11
(lp253
I1
aI0
aI1
aI1
asI12
(lp254
I1
aI0
aI1
aI1
asI13
(lp255
I0
aI1
aI0
aI1
asssI16
(dp256
g2
(dp257
I0
(lp258
g5
ag6
ag5
ag6
asI1
(lp259
g5
ag5
ag6
ag5
asI2
(lp260
g6
ag6
ag6
ag6
asI3
(lp261
g6
ag5
ag6
ag5
asI4
(lp262
g6
ag6
ag5
ag5
asI5
(lp263
g6
ag5
ag6
ag5
asI6
(lp264
g6
ag5
ag5
ag5
asI7
(lp265
g6
ag5
ag6
ag5
asI8
(lp266
g5
ag5
ag5
ag5
asI9
(lp267
g5
ag6
ag6
ag5
asI10
(lp268
g6
ag5
ag5
ag5
asI11
(lp269
g6
ag6
ag6
ag6
asI12
(lp270
g6
ag5
ag6
ag5
asI13
(lp271
g6
ag6
ag6
ag6
asI14
(lp272
g6
ag5
ag5
ag5
asI15
(lp273
g6
ag5
ag6
ag5
assg14
(dp274
I0
(lp275
I8
aI9
aI10
aI11
asI1
(lp276
I9
aI10
aI11
aI12
asI2
(lp277
I10
aI11
aI12
aI13
asI3
(lp278
I11
aI12
aI13
aI14
asI4
(lp279
I12
aI13
aI14
aI15
asI5
(lp280
I13
aI14
aI15
aI8
asI6
(lp281
I14
aI15
aI8
aI9
asI7
(lp282
I15
aI8
aI9
aI10
asI8
(lp283
I0
aI7
aI6
aI5
asI9
(lp284
I1
aI0
aI7
aI6
asI10
(lp285
I2
aI1
aI0
aI7
asI11
(lp286
I3
aI2
aI1
aI0
asI12
(lp287
I4
aI3
aI2
aI1
asI13
(lp288
I5
aI4
aI3
aI2
asI14
(lp289
I6
aI5
aI4
aI3
asI15
(lp290
I7
aI6
aI5
aI4
assg24
(dp291
I0
(lp292
g27
ag29
ag28
ag30
asI1
(lp293
g30
ag27
ag28
ag29
asI2
(lp294
g29
ag27
ag28
ag30
asI3
(lp295
g29
ag27
ag28
ag30
asI4
(lp296
g30
ag29
ag28
ag27
asI5
(lp297
g27
ag29
ag30
ag28
asI6
(lp298
g27
ag29
ag30
ag28
asI7
(lp299
g28
ag29
ag27
ag30
asI8
(lp300
g27
ag29
ag30
ag28
asI9
(lp301
g30
ag29
ag27
ag28
asI10
(lp302
g29
ag27
ag28
ag30
asI11
(lp303
g29
ag27
ag28
ag30
asI12
(lp304
g30
ag27
ag28
ag29
asI13
(lp305
g27
ag29
ag28
ag30
asI14
(lp306
g27
ag29
ag28
ag30
asI15
(lp307
g28
ag29
ag30
ag27
assg38
(dp308
I0
(lp309
I0
aI0
aI0
aI0
asI1
(lp310
I1
aI1
aI1
aI1
asI2
(lp311
I2
aI2
aI2
aI2
asI3
(lp312
I3
aI3
aI3
aI3
asI4
(lp313
I4
aI4
aI4
aI4
asI5
(lp314
I5
aI5
aI5
aI5
asI6
(lp315
I6
aI6
aI6
aI6
asI7
(lp316
I7
aI7
aI7
aI7
asI8
(lp317
I0
aI7
aI6
aI5
asI9
(lp318
I1
aI0
aI7
aI6
asI10
(lp319
I2
aI1
aI0
aI7
asI11
(lp320
I3
aI2
aI1
aI0
asI12
(lp321
I4
aI3
aI2
aI1
asI13
(lp322
I5
aI4
aI3
aI2
asI14
(lp323
I6
aI5
aI4
aI3
asI15
(lp324
I7
aI6
aI5
aI4
assg48
(dp325
I0
(lp326
I0
aI0
aI0
aI1
asI1
(lp327
I1
aI1
aI0
aI1
asI2
(lp328
I0
aI1
aI1
aI0
asI3
(lp329
I0
aI0
aI0
aI0
asI4
(lp330
I1
aI0
aI1
aI0
asI5
(lp331
I0
aI1
aI1
aI1
asI6
(lp332
I0
aI0
aI0
aI1
asI7
(lp333
I0
aI0
aI1
aI0
asI8
(lp334
I1
aI1
aI1
aI0
asI9
(lp335
I0
aI1
aI0
aI0
asI10
(lp336
I1
aI0
aI1
aI1
asI11
(lp337
I1
aI0
aI1
aI0
asI12
(lp338
I0
aI1
aI0
aI0
asI13
(lp339
I1
aI1
aI1
aI1
asI14
(lp340
I1
aI0
aI0
aI1
asI15
(lp341
I1
aI1
aI0
aI1
asssI18
(dp342
g2
(dp343
I0
(lp344
g6
ag5
ag6
ag6
asI1
(lp345
g6
ag5
ag6
ag5
asI2
(lp346
g5
ag6
ag6
ag5
asI3
(lp347
g6
ag6
ag5
ag6
asI4
(lp348
g6
ag6
ag5
ag5
asI5
(lp349
g5
ag6
ag5
ag5
asI6
(lp350
g6
ag5
ag5
ag6
asI7
(lp351
g5
ag5
ag6
ag6
asI8
(lp352
g5
ag6
ag6
ag6
asI9
(lp353
g6
ag6
ag6
ag6
asI10
(lp354
g6
ag5
ag6
ag6
asI11
(lp355
g5
ag5
ag6
ag6
asI12
(lp356
g6
ag6
ag6
ag6
asI13
(lp357
g6
ag6
ag6
ag5
asI14
(lp358
g5
ag6
ag5
ag5
asI15
(lp359
g6
ag6
ag5
ag6
asI16
(lp360
g5
ag5
ag5
ag5
asI17
(lp361
g5
ag5
ag5
ag5
assg14
(dp362
I0
(lp363
I9
aI10
aI11
aI12
asI1
(lp364
I10
aI11
aI12
aI13
asI2
(lp365
I11
aI12
aI13
aI14
asI3
(lp366
I12
aI13
aI14
aI15
asI4
(lp367
I13
aI14
aI15
aI16
asI5
(lp368
I14
aI15
aI16
aI17
asI6
(lp369
I15
aI16
aI17
aI9
asI7
(lp370
I16
aI17
aI9
aI10
asI8
(lp371
I17
aI9
aI10
aI11
asI9
(lp372
I0
aI8
aI7
aI6
asI10
(lp373
I1
aI0
aI8
aI7
asI11
(lp374
I2
aI1
aI0
aI8
asI12
(lp375
I3
aI2
aI1
aI0
asI13
(lp376
I4
aI3
aI2
aI1
asI14
(lp377
I5
aI4
aI3
aI2
asI15
(lp378
I6
aI5
aI4
aI3
asI16
(lp379
I7
aI6
aI5
aI4
asI17
(lp380
I8
aI7
aI6
aI5
assg24
(dp381
I0
(lp382
g28
ag30
ag27
ag29
asI1
(lp383
g27
ag29
ag30
ag28
asI2
(lp384
g30
ag28
ag27
ag29
asI3
(lp385
g27
ag30
ag28
ag29
asI4
(lp386
g29
ag30
ag27
ag28
asI5
(lp387
g27
ag28
ag30
ag29
asI6
(lp388
g30
ag27
ag28
ag29
asI7
(lp389
g29
ag27
ag30
ag28
asI8
(lp390
g30
ag27
ag29
ag28
asI9
(lp391
g28
ag27
ag30
ag29
asI10
(lp392
g27
ag30
ag29
ag28
asI11
(lp393
g30
ag29
ag27
ag28
asI12
(lp394
g27
ag28
ag30
ag29
asI13
(lp395
g29
ag30
ag27
ag28
asI14
(lp396
g27
ag30
ag28
ag29
asI15
(lp397
g30
ag28
ag27
ag29
asI16
(lp398
g29
ag27
ag30
ag28
asI17
(lp399
g30
ag27
ag28
ag29
assg38
(dp400
I0
(lp401
I0
aI0
aI0
aI0
asI1
(lp402
I1
aI1
aI1
aI1
asI2
(lp403
I2
aI2
aI2
aI2
asI3
(lp404
I3
aI3
aI3
aI3
asI4
(lp405
I4
aI4
aI4
aI4
asI5
(lp406
I5
aI5
aI5
aI5
asI6
(lp407
I6
aI6
aI6
aI6
asI7
(lp408
I7
aI7
aI7
aI7
asI8
(lp409
I8
aI8
aI8
aI8
asI9
(lp410
I0
aI8
aI7
aI6
asI10
(lp411
I1
aI0
aI8
aI7
asI11
(lp412
I2
aI1
aI0
aI8
asI12
(lp413
I3
aI2
aI1
aI0
asI13
(lp414
I4
aI3
aI2
aI1
asI14
(lp415
I5
aI4
aI3
aI2
asI15
(lp416
I6
aI5
aI4
aI3
asI16
(lp417
I7
aI6
aI5
aI4
asI17
(lp418
I8
aI7
aI6
aI5
assg48
(dp419
I0
(lp420
I0
aI0
aI0
aI1
asI1
(lp421
I1
aI1
aI0
aI0
asI2
(lp422
I1
aI1
aI1
aI1
asI3
(lp423
I1
aI0
aI1
aI0
asI4
(lp424
I0
aI1
aI0
aI1
asI5
(lp425
I1
aI0
aI1
aI1
asI6
(lp426
I0
aI1
aI1
aI1
asI7
(lp427
I1
aI1
aI0
aI1
asI8
(lp428
I0
aI0
aI1
aI0
asI9
(lp429
I1
aI1
aI1
aI0
asI10
(lp430
I0
aI1
aI0
aI0
asI11
(lp431
I0
aI0
aI1
aI1
asI12
(lp432
I0
aI0
aI1
aI0
asI13
(lp433
I1
aI1
aI0
aI1
asI14
(lp434
I0
aI0
aI0
aI0
asI15
(lp435
I1
aI1
aI1
aI1
asI16
(lp436
I0
aI0
aI0
aI0
asI17
(lp437
I1
aI0
aI0
aI0
asssI20
(dp438
g2
(dp439
I0
(lp440
g6
ag5
ag6
ag6
asI1
(lp441
g5
ag6
ag6
ag5
asI2
(lp442
g5
ag6
ag5
ag6
asI3
(lp443
g5
ag5
ag5
ag6
asI4
(lp444
g6
ag6
ag5
ag5
asI5
(lp445
g5
ag5
ag6
ag6
asI6
(lp446
g6
ag5
ag5
ag5
asI7
(lp447
g6
ag6
ag6
ag5
asI8
(lp448
g6
ag6
ag5
ag5
asI9
(lp449
g6
ag6
ag5
ag5
asI10
(lp450
g6
ag6
ag5
ag5
asI11
(lp451
g5
ag5
ag5
ag5
asI12
(lp452
g5
ag6
ag6
ag5
asI13
(lp453
g5
ag6
ag6
ag6
asI14
(lp454
g6
ag5
ag5
ag5
asI15
(lp455
g5
ag6
ag5
ag6
asI16
(lp456
g6
ag5
ag5
ag6
asI17
(lp457
g6
ag5
ag6
ag5
asI18
(lp458
g6
ag6
ag5
ag6
asI19
(lp459
g6
ag6
ag6
ag5
assg14
(dp460
I0
(lp461
I10
aI11
aI12
aI13
asI1
(lp462
I11
aI12
aI13
aI14
asI2
(lp463
I12
aI13
aI14
aI15
asI3
(lp464
I13
aI14
aI15
aI16
asI4
(lp465
I14
aI15
aI16
aI17
asI5
(lp466
I15
aI16
aI17
aI18
asI6
(lp467
I16
aI17
aI18
aI19
asI7
(lp468
I17
aI18
aI19
aI10
asI8
(lp469
I18
aI19
aI10
aI11
asI9
(lp470
I19
aI10
aI11
aI12
asI10
(lp471
I0
aI9
aI8
aI7
asI11
(lp472
I1
aI0
aI9
aI8
asI12
(lp473
I2
aI1
aI0
aI9
asI13
(lp474
I3
aI2
aI1
aI0
asI14
(lp475
I4
aI3
aI2
aI1
asI15
(lp476
I5
aI4
aI3
aI2
asI16
(lp477
I6
aI5
aI4
aI3
asI17
(lp478
I7
aI6
aI5
aI4
asI18
(lp479
I8
aI7
aI6
aI5
asI19
(lp480
I9
aI8
aI7
aI6
assg24
(dp481
I0
(lp482
g27
ag30
ag29
ag28
asI1
(lp483
g28
ag30
ag27
ag29
asI2
(lp484
g27
ag30
ag28
ag29
asI3
(lp485
g29
ag30
ag27
ag28
asI4
(lp486
g27
ag28
ag30
ag29
asI5
(lp487
g30
ag27
ag28
ag29
asI6
(lp488
g29
ag27
ag28
ag30
asI7
(lp489
g30
ag27
ag28
ag29
asI8
(lp490
g30
ag27
ag28
ag29
asI9
(lp491
g29
ag30
ag27
ag28
asI10
(lp492
g27
ag30
ag28
ag29
asI11
(lp493
g28
ag30
ag27
ag29
asI12
(lp494
g27
ag30
ag29
ag28
asI13
(lp495
g29
ag30
ag27
ag28
asI14
(lp496
g27
ag30
ag28
ag29
asI15
(lp497
g30
ag28
ag27
ag29
asI16
(lp498
g29
ag27
ag30
ag28
asI17
(lp499
g30
ag27
ag28
ag29
asI18
(lp500
g30
ag27
ag28
ag29
asI19
(lp501
g29
ag27
ag28
ag30
assg38
(dp502
I0
(lp503
I0
aI0
aI0
aI0
asI1
(lp504
I1
aI1
aI1
aI1
asI2
(lp505
I2
aI2
aI2
aI2
asI3
(lp506
I3
aI3
aI3
aI3
asI4
(lp507
I4
aI4
aI4
aI4
asI5
(lp508
I5
aI5
aI5
aI5
asI6
(lp509
I6
aI6
aI6
aI6
asI7
(lp510
I7
aI7
aI7
aI7
asI8
(lp511
I8
aI8
aI8
aI8
asI9
(lp512
I9
aI9
aI9
aI9
asI10
(lp513
I0
aI9
aI8
aI7
asI11
(lp514
I1
aI0
aI9
aI8
asI12
(lp515
I2
aI1
aI0
aI9
asI13
(lp516
I3
aI2
aI1
aI0
asI14
(lp517
I4
aI3
aI2
aI1
asI15
(lp518
I5
aI4
aI3
aI2
asI16
(lp519
I6
aI5
aI4
aI3
asI17
(lp520
I7
aI6
aI5
aI4
asI18
(lp521
I8
aI7
aI6
aI5
asI19
(lp522
I9
aI8
aI7
aI6
assg48
(dp523
I0
(lp524
I0
aI0
aI0
aI1
asI1
(lp525
I0
aI1
aI1
aI1
asI2
(lp526
I1
aI0
aI0
aI1
asI3
(lp527
I0
aI0
aI0
aI0
asI4
(lp528
I0
aI0
aI1
aI1
asI5
(lp529
I1
aI0
aI0
aI1
asI6
(lp530
I0
aI1
aI0
aI1
asI7
(lp531
I1
aI1
aI0
aI0
asI8
(lp532
I1
aI0
aI0
aI1
asI9
(lp533
I0
aI1
aI1
aI0
asI10
(lp534
I1
aI0
aI1
aI1
asI11
(lp535
I1
aI1
aI0
aI0
asI12
(lp536
I0
aI0
aI1
aI1
asI13
(lp537
I1
aI1
aI0
aI0
asI14
(lp538
I1
aI1
aI1
aI0
asI15
(lp539
I0
aI1
aI1
aI0
asI16
(lp540
I1
aI1
aI0
aI1
asI17
(lp541
I0
aI0
aI1
aI0
asI18
(lp542
I0
aI0
aI1
aI0
asI19
(lp543
I1
aI1
aI1
aI0
asssI22
(dp544
g2
(dp545
I0
(lp546
g6
ag6
ag5
ag6
asI1
(lp547
g5
ag5
ag6
ag5
asI2
(lp548
g6
ag6
ag5
ag5
asI3
(lp549
g5
ag5
ag5
ag6
asI4
(lp550
g5
ag6
ag6
ag5
asI5
(lp551
g5
ag6
ag5
ag6
asI6
(lp552
g6
ag6
ag6
ag6
asI7
(lp553
g6
ag5
ag6
ag6
asI8
(lp554
g5
ag5
ag5
ag6
asI9
(lp555
g6
ag5
ag6
ag6
asI10
(lp556
g5
ag6
ag6
ag5
asI11
(lp557
g6
ag6
ag6
ag6
asI12
(lp558
g5
ag6
ag6
ag6
asI13
(lp559
g6
ag5
ag5
ag5
asI14
(lp560
g5
ag6
ag6
ag6
asI15
(lp561
g5
ag5
ag5
ag5
asI16
(lp562
g5
ag6
ag5
ag5
asI17
(lp563
g6
ag6
ag6
ag6
asI18
(lp564
g6
ag6
ag5
ag5
asI19
(lp565
g5
ag5
ag6
ag6
asI20
(lp566
g6
ag5
ag6
ag6
asI21
(lp567
g5
ag5
ag5
ag6
assg14
(dp568
I0
(lp569
I11
aI12
aI13
aI14
asI1
(lp570
I12
aI13
aI14
aI15
asI2
(lp571
I13
aI14
aI15
aI16
asI3
(lp572
I14
aI15
aI16
aI17
asI4
(lp573
I15
aI16
aI17
aI18
asI5
(lp574
I16
aI17
aI18
aI19
asI6
(lp575
I17
aI18
aI19
aI20
asI7
(lp576
I18
aI19
aI20
aI21
asI8
(lp577
I19
aI20
aI21
aI11
asI9
(lp578
I20
aI21
aI11
aI12
asI10
(lp579
I21
aI11
aI12
aI13
asI11
(lp580
I0
aI10
aI9
aI8
asI12
(lp581
I1
aI0
aI10
aI9
asI13
(lp582
I2
aI1
aI0
aI10
asI14
(lp583
I3
aI2
aI1
aI0
asI15
(lp584
I4
aI3
aI2
aI1
asI16
(lp585
I5
aI4
aI3
aI2
asI17
(lp586
I6
aI5
aI4
aI3
asI18
(lp587
I7
aI6
aI5
aI4
asI19
(lp588
I8
aI7
aI6
aI5
asI20
(lp589
I9
aI8
aI7
aI6
asI21
(lp590
I10
aI9
aI8
aI7
assg24
(dp591
I0
(lp592
g29
ag27
ag28
ag30
asI1
(lp593
g30
ag27
ag29
ag28
asI2
(lp594
g29
ag27
ag30
ag28
asI3
(lp595
g28
ag29
ag27
ag30
asI4
(lp596
g27
ag29
ag28
ag30
asI5
(lp597
g30
ag27
ag29
ag28
asI6
(lp598
g29
ag27
ag30
ag28
asI7
(lp599
g28
ag29
ag27
ag30
asI8
(lp600
g27
ag29
ag28
ag30
asI9
(lp601
g30
ag29
ag27
ag28
asI10
(lp602
g27
ag28
ag29
ag30
asI11
(lp603
g29
ag28
ag27
ag30
asI12
(lp604
g30
ag27
ag29
ag28
asI13
(lp605
g29
ag27
ag28
ag30
asI14
(lp606
g28
ag27
ag29
ag30
asI15
(lp607
g27
ag29
ag30
ag28
asI16
(lp608
g30
ag29
ag27
ag28
asI17
(lp609
g29
ag27
ag28
ag30
asI18
(lp610
g28
ag27
ag29
ag30
asI19
(lp611
g27
ag29
ag30
ag28
asI20
(lp612
g30
ag29
ag27
ag28
asI21
(lp613
g27
ag29
ag28
ag30
assg38
(dp614
I0
(lp615
I0
aI0
aI0
aI0
asI1
(lp616
I1
aI1
aI1
aI1
asI2
(lp617
I2
aI2
aI2
aI2
asI3
(lp618
I3
aI3
aI3
aI3
asI4
(lp619
I4
aI4
aI4
aI4
asI5
(lp620
I5
aI5
aI5
aI5
asI6
(lp621
I6
aI6
aI6
aI6
asI7
(lp622
I7
aI7
aI7
aI7
asI8
(lp623
I8
aI8
aI8
aI8
asI9
(lp624
I9
aI9
aI9
aI9
asI10
(lp625
I10
aI10
aI10
aI10
asI11
(lp626
I0
aI10
aI9
aI8
asI12
(lp627
I1
aI0
aI10
aI9
asI13
(lp628
I2
aI1
aI0
aI10
asI14
(lp629
I3
aI2
aI1
aI0
asI15
(lp630
I4
aI3
aI2
aI1
asI16
(lp631
I5
aI4
aI3
aI2
asI17
(lp632
I6
aI5
aI4
aI3
asI18
(lp633
I7
aI6
aI5
aI4
asI19
(lp634
I8
aI7
aI6
aI5
asI20
(lp635
I9
aI8
aI7
aI6
asI21
(lp636
I10
aI9
aI8
aI7
assg48
(dp637
I0
(lp638
I1
aI1
aI1
aI0
asI1
(lp639
I1
aI0
aI0
aI1
asI2
(lp640
I1
aI0
aI0
aI0
asI3
(lp641
I1
aI0
aI1
aI1
asI4
(lp642
I0
aI1
aI0
aI1
asI5
(lp643
I0
aI1
aI1
aI1
asI6
(lp644
I0
aI1
aI0
aI0
asI7
(lp645
I0
aI0
aI1
aI0
asI8
(lp646
I1
aI0
aI0
aI0
asI9
(lp647
I1
aI1
aI0
aI0
asI10
(lp648
I0
aI0
aI0
aI0
asI11
(lp649
I0
aI1
aI1
aI1
asI12
(lp650
I0
aI0
aI1
aI1
asI13
(lp651
I0
aI1
aI0
aI1
asI14
(lp652
I0
aI1
aI1
aI1
asI15
(lp653
I1
aI1
aI1
aI0
asI16
(lp654
I1
aI0
aI0
aI1
asI17
(lp655
I1
aI0
aI1
aI0
asI18
(lp656
I1
aI0
aI0
aI0
asI19
(lp657
I0
aI1
aI1
aI0
asI20
(lp658
I0
aI1
aI0
aI1
asI21
(lp659
I1
aI0
aI1
aI1
asss.