(dp0
I8
(dp1
I0
(dp2
I0
(dp3
S'game'
p4
S'BOH'
p5
sS'roles'
p6
I1
sS'groups'
p7
I0
ssI1
(dp8
g4
S'SHH'
p9
sg6
I1
sg7
I0
ssI2
(dp10
g4
S'SDL'
p11
sg6
I0
sg7
I0
ssI3
(dp12
g4
S'PDL'
p13
sg6
I1
sg7
I0
sssI1
(dp14
I0
(dp15
g4
S'PDH'
p16
sg6
I1
sg7
I1
ssI1
(dp17
g4
S'BOL'
p18
sg6
I0
sg7
I1
ssI2
(dp19
g4
S'SHL'
p20
sg6
I0
sg7
I1
ssI3
(dp21
g4
S'SDH'
p22
sg6
I1
sg7
I1
sssI2
(dp23
I0
(dp24
g4
S'SHH'
p25
sg6
I0
sg7
I2
ssI1
(dp26
g4
S'BOH'
p27
sg6
I0
sg7
I2
ssI2
(dp28
g4
S'PDL'
p29
sg6
I0
sg7
I2
ssI3
(dp30
g4
S'SDL'
p31
sg6
I0
sg7
I2
sssI3
(dp32
I0
(dp33
g4
S'SDH'
p34
sg6
I0
sg7
I3
ssI1
(dp35
g4
S'SHL'
p36
sg6
I0
sg7
I3
ssI2
(dp37
g4
S'BOL'
p38
sg6
I0
sg7
I3
ssI3
(dp39
g4
S'PDH'
p40
sg6
I0
sg7
I3
sssI4
(dp41
I0
(dp42
g4
S'BOH'
p43
sg6
I0
sg7
I0
ssI1
(dp44
g4
S'SHL'
p45
sg6
I1
sg7
I3
ssI2
(dp46
g4
S'PDL'
p47
sg6
I1
sg7
I2
ssI3
(dp48
g4
S'SDH'
p49
sg6
I0
sg7
I1
sssI5
(dp50
I0
(dp51
g4
S'PDH'
p52
sg6
I0
sg7
I1
ssI1
(dp53
g4
S'SHH'
p54
sg6
I0
sg7
I0
ssI2
(dp55
g4
S'BOL'
p56
sg6
I1
sg7
I3
ssI3
(dp57
g4
S'SDL'
p58
sg6
I1
sg7
I2
sssI6
(dp59
I0
(dp60
g4
S'SHH'
p61
sg6
I1
sg7
I2
ssI1
(dp62
g4
S'BOL'
p63
sg6
I1
sg7
I1
ssI2
(dp64
g4
S'SDL'
p65
sg6
I1
sg7
I0
ssI3
(dp66
g4
S'PDH'
p67
sg6
I1
sg7
I3
sssI7
(dp68
I0
(dp69
g4
S'SDH'
p70
sg6
I1
sg7
I3
ssI1
(dp71
g4
S'BOH'
p72
sg6
I1
sg7
I2
ssI2
(dp73
g4
S'SHL'
p74
sg6
I1
sg7
I1
ssI3
(dp75
g4
S'PDL'
p76
sg6
I0
sg7
I0
ssssI10
(dp77
I0
(dp78
I0
(dp79
g4
S'SHL'
p80
sg6
I1
sg7
I0
ssI1
(dp81
g4
S'PDH'
p82
sg6
I1
sg7
I0
ssI2
(dp83
g4
S'BOH'
p84
sg6
I1
sg7
I0
ssI3
(dp85
g4
S'SDL'
p86
sg6
I0
sg7
I0
sssI1
(dp87
I0
(dp88
g4
S'BOL'
p89
sg6
I1
sg7
I1
ssI1
(dp90
g4
S'PDL'
p91
sg6
I0
sg7
I1
ssI2
(dp92
g4
S'SHH'
p93
sg6
I0
sg7
I1
ssI3
(dp94
g4
S'SDH'
p95
sg6
I1
sg7
I1
sssI2
(dp96
I0
(dp97
g4
S'SDL'
p98
sg6
I0
sg7
I2
ssI1
(dp99
g4
S'BOH'
p100
sg6
I0
sg7
I2
ssI2
(dp101
g4
S'SHL'
p102
sg6
I0
sg7
I2
ssI3
(dp103
g4
S'PDH'
p104
sg6
I0
sg7
I2
sssI3
(dp105
I0
(dp106
g4
S'PDL'
p107
sg6
I0
sg7
I3
ssI1
(dp108
g4
S'BOH'
p109
sg6
I0
sg7
I3
ssI2
(dp110
g4
S'SDH'
p111
sg6
I0
sg7
I3
ssI3
(dp112
g4
S'SHL'
p113
sg6
I1
sg7
I3
sssI4
(dp114
I0
(dp115
g4
S'PDL'
p116
sg6
I1
sg7
I4
ssI1
(dp117
g4
S'BOL'
p118
sg6
I0
sg7
I4
ssI2
(dp119
g4
S'SDH'
p120
sg6
I1
sg7
I4
ssI3
(dp121
g4
S'SHH'
p122
sg6
I0
sg7
I4
sssI5
(dp123
I0
(dp124
g4
S'SHL'
p125
sg6
I0
sg7
I0
ssI1
(dp126
g4
S'BOL'
p127
sg6
I1
sg7
I4
ssI2
(dp128
g4
S'SDH'
p129
sg6
I1
sg7
I3
ssI3
(dp130
g4
S'PDH'
p131
sg6
I1
sg7
I2
sssI6
(dp132
I0
(dp133
g4
S'BOL'
p134
sg6
I0
sg7
I1
ssI1
(dp135
g4
S'PDH'
p136
sg6
I0
sg7
I0
ssI2
(dp137
g4
S'SDH'
p138
sg6
I0
sg7
I4
ssI3
(dp139
g4
S'SHL'
p140
sg6
I0
sg7
I3
sssI7
(dp141
I0
(dp142
g4
S'SDL'
p143
sg6
I1
sg7
I2
ssI1
(dp144
g4
S'PDL'
p145
sg6
I1
sg7
I1
ssI2
(dp146
g4
S'BOH'
p147
sg6
I0
sg7
I0
ssI3
(dp148
g4
S'SHH'
p149
sg6
I1
sg7
I4
sssI8
(dp150
I0
(dp151
g4
S'PDL'
p152
sg6
I1
sg7
I3
ssI1
(dp153
g4
S'BOH'
p154
sg6
I1
sg7
I2
ssI2
(dp155
g4
S'SHH'
p156
sg6
I1
sg7
I1
ssI3
(dp157
g4
S'SDL'
p158
sg6
I1
sg7
I0
sssI9
(dp159
I0
(dp160
g4
S'PDL'
p161
sg6
I0
sg7
I4
ssI1
(dp162
g4
S'BOH'
p163
sg6
I1
sg7
I3
ssI2
(dp164
g4
S'SHL'
p165
sg6
I1
sg7
I2
ssI3
(dp166
g4
S'SDH'
p167
sg6
I0
sg7
I1
ssssI12
(dp168
I0
(dp169
I0
(dp170
g4
S'PDL'
p171
sg6
I1
sg7
I0
ssI1
(dp172
g4
S'SDH'
p173
sg6
I0
sg7
I0
ssI2
(dp174
g4
S'SHL'
p175
sg6
I0
sg7
I0
ssI3
(dp176
g4
S'BOH'
p177
sg6
I1
sg7
I0
sssI1
(dp178
I0
(dp179
g4
S'PDL'
p180
sg6
I0
sg7
I1
ssI1
(dp181
g4
S'SDL'
p182
sg6
I0
sg7
I1
ssI2
(dp183
g4
S'SHH'
p184
sg6
I1
sg7
I1
ssI3
(dp185
g4
S'BOH'
p186
sg6
I0
sg7
I1
sssI2
(dp187
I0
(dp188
g4
S'BOH'
p189
sg6
I1
sg7
I2
ssI1
(dp190
g4
S'PDL'
p191
sg6
I1
sg7
I2
ssI2
(dp192
g4
S'SHL'
p193
sg6
I0
sg7
I2
ssI3
(dp194
g4
S'SDH'
p195
sg6
I1
sg7
I2
sssI3
(dp196
I0
(dp197
g4
S'SDL'
p198
sg6
I0
sg7
I3
ssI1
(dp199
g4
S'PDH'
p200
sg6
I0
sg7
I3
ssI2
(dp201
g4
S'BOL'
p202
sg6
I0
sg7
I3
ssI3
(dp203
g4
S'SHH'
p204
sg6
I0
sg7
I3
sssI4
(dp205
I0
(dp206
g4
S'SDL'
p207
sg6
I0
sg7
I4
ssI1
(dp208
g4
S'PDH'
p209
sg6
I0
sg7
I4
ssI2
(dp210
g4
S'BOL'
p211
sg6
I0
sg7
I4
ssI3
(dp212
g4
S'SHH'
p213
sg6
I0
sg7
I4
sssI5
(dp214
I0
(dp215
g4
S'SHL'
p216
sg6
I1
sg7
I5
ssI1
(dp217
g4
S'SDH'
p218
sg6
I1
sg7
I5
ssI2
(dp219
g4
S'BOL'
p220
sg6
I0
sg7
I5
ssI3
(dp221
g4
S'PDH'
p222
sg6
I1
sg7
I5
sssI6
(dp223
I0
(dp224
g4
S'PDL'
p225
sg6
I0
sg7
I0
ssI1
(dp226
g4
S'SDH'
p227
sg6
I0
sg7
I5
ssI2
(dp228
g4
S'BOL'
p229
sg6
I1
sg7
I4
ssI3
(dp230
g4
S'SHH'
p231
sg6
I1
sg7
I3
sssI7
(dp232
I0
(dp233
g4
S'PDL'
p234
sg6
I1
sg7
I1
ssI1
(dp235
g4
S'SDH'
p236
sg6
I1
sg7
I0
ssI2
(dp237
g4
S'BOL'
p238
sg6
I1
sg7
I5
ssI3
(dp239
g4
S'SHH'
p240
sg6
I1
sg7
I4
sssI8
(dp241
I0
(dp242
g4
S'BOH'
p243
sg6
I0
sg7
I2
ssI1
(dp244
g4
S'SDL'
p245
sg6
I1
sg7
I1
ssI2
(dp246
g4
S'SHL'
p247
sg6
I1
sg7
I0
ssI3
(dp248
g4
S'PDH'
p249
sg6
I0
sg7
I5
sssI9
(dp250
I0
(dp251
g4
S'SDL'
p252
sg6
I1
sg7
I3
ssI1
(dp253
g4
S'PDL'
p254
sg6
I0
sg7
I2
ssI2
(dp255
g4
S'SHH'
p256
sg6
I0
sg7
I1
ssI3
(dp257
g4
S'BOH'
p258
sg6
I0
sg7
I0
sssI10
(dp259
I0
(dp260
g4
S'SDL'
p261
sg6
I1
sg7
I4
ssI1
(dp262
g4
S'PDH'
p263
sg6
I1
sg7
I3
ssI2
(dp264
g4
S'SHL'
p265
sg6
I1
sg7
I2
ssI3
(dp266
g4
S'BOH'
p267
sg6
I1
sg7
I1
sssI11
(dp268
I0
(dp269
g4
S'SHL'
p270
sg6
I0
sg7
I5
ssI1
(dp271
g4
S'PDH'
p272
sg6
I1
sg7
I4
ssI2
(dp273
g4
S'BOL'
p274
sg6
I1
sg7
I3
ssI3
(dp275
g4
S'SDH'
p276
sg6
I0
sg7
I2
ssssI14
(dp277
I0
(dp278
I0
(dp279
g4
S'BOH'
p280
sg6
I1
sg7
I0
ssI1
(dp281
g4
S'PDH'
p282
sg6
I0
sg7
I0
ssI2
(dp283
g4
S'SHL'
p284
sg6
I1
sg7
I0
ssI3
(dp285
g4
S'SDL'
p286
sg6
I0
sg7
I0
sssI1
(dp287
I0
(dp288
g4
S'SDL'
p289
sg6
I1
sg7
I1
ssI1
(dp290
g4
S'PDH'
p291
sg6
I0
sg7
I1
ssI2
(dp292
g4
S'BOL'
p293
sg6
I0
sg7
I1
ssI3
(dp294
g4
S'SHH'
p295
sg6
I0
sg7
I1
sssI2
(dp296
I0
(dp297
g4
S'BOL'
p298
sg6
I1
sg7
I2
ssI1
(dp299
g4
S'PDH'
p300
sg6
I0
sg7
I2
ssI2
(dp301
g4
S'SDL'
p302
sg6
I1
sg7
I2
ssI3
(dp303
g4
S'SHH'
p304
sg6
I0
sg7
I2
sssI3
(dp305
I0
(dp306
g4
S'SHH'
p307
sg6
I1
sg7
I3
ssI1
(dp308
g4
S'BOH'
p309
sg6
I1
sg7
I3
ssI2
(dp310
g4
S'PDL'
p311
sg6
I1
sg7
I3
ssI3
(dp312
g4
S'SDL'
p313
sg6
I0
sg7
I3
sssI4
(dp314
I0
(dp315
g4
S'PDL'
p316
sg6
I1
sg7
I4
ssI1
(dp317
g4
S'BOL'
p318
sg6
I1
sg7
I4
ssI2
(dp319
g4
S'SHH'
p320
sg6
I0
sg7
I4
ssI3
(dp321
g4
S'SDH'
p322
sg6
I1
sg7
I4
sssI5
(dp323
I0
(dp324
g4
S'SDH'
p325
sg6
I0
sg7
I5
ssI1
(dp326
g4
S'BOH'
p327
sg6
I1
sg7
I5
ssI2
(dp328
g4
S'PDL'
p329
sg6
I0
sg7
I5
ssI3
(dp330
g4
S'SHL'
p331
sg6
I1
sg7
I5
sssI6
(dp332
I0
(dp333
g4
S'PDL'
p334
sg6
I1
sg7
I6
ssI1
(dp335
g4
S'SHL'
p336
sg6
I0
sg7
I6
ssI2
(dp337
g4
S'BOH'
p338
sg6
I0
sg7
I6
ssI3
(dp339
g4
S'SDH'
p340
sg6
I0
sg7
I6
sssI7
(dp341
I0
(dp342
g4
S'BOH'
p343
sg6
I0
sg7
I0
ssI1
(dp344
g4
S'SHL'
p345
sg6
I1
sg7
I6
ssI2
(dp346
g4
S'PDL'
p347
sg6
I1
sg7
I5
ssI3
(dp348
g4
S'SDH'
p349
sg6
I0
sg7
I4
sssI8
(dp350
I0
(dp351
g4
S'SDL'
p352
sg6
I0
sg7
I1
ssI1
(dp353
g4
S'PDH'
p354
sg6
I1
sg7
I0
ssI2
(dp355
g4
S'BOH'
p356
sg6
I1
sg7
I6
ssI3
(dp357
g4
S'SHL'
p358
sg6
I0
sg7
I5
sssI9
(dp359
I0
(dp360
g4
S'BOL'
p361
sg6
I0
sg7
I2
ssI1
(dp362
g4
S'PDH'
p363
sg6
I1
sg7
I1
ssI2
(dp364
g4
S'SHL'
p365
sg6
I0
sg7
I0
ssI3
(dp366
g4
S'SDH'
p367
sg6
I1
sg7
I6
sssI10
(dp368
I0
(dp369
g4
S'SHH'
p370
sg6
I0
sg7
I3
ssI1
(dp371
g4
S'PDH'
p372
sg6
I1
sg7
I2
ssI2
(dp373
g4
S'BOL'
p374
sg6
I1
sg7
I1
ssI3
(dp375
g4
S'SDL'
p376
sg6
I1
sg7
I0
sssI11
(dp377
I0
(dp378
g4
S'PDL'
p379
sg6
I0
sg7
I4
ssI1
(dp380
g4
S'BOH'
p381
sg6
I0
sg7
I3
ssI2
(dp382
g4
S'SDL'
p383
sg6
I0
sg7
I2
ssI3
(dp384
g4
S'SHH'
p385
sg6
I1
sg7
I1
sssI12
(dp386
I0
(dp387
g4
S'SDH'
p388
sg6
I1
sg7
I5
ssI1
(dp389
g4
S'BOL'
p390
sg6
I0
sg7
I4
ssI2
(dp391
g4
S'PDL'
p392
sg6
I0
sg7
I3
ssI3
(dp393
g4
S'SHH'
p394
sg6
I1
sg7
I2
sssI13
(dp395
I0
(dp396
g4
S'PDL'
p397
sg6
I0
sg7
I6
ssI1
(dp398
g4
S'BOH'
p399
sg6
I0
sg7
I5
ssI2
(dp400
g4
S'SHH'
p401
sg6
I1
sg7
I4
ssI3
(dp402
g4
S'SDL'
p403
sg6
I1
sg7
I3
ssssI16
(dp404
I0
(dp405
I0
(dp406
g4
S'SHH'
p407
sg6
I1
sg7
I0
ssI1
(dp408
g4
S'PDL'
p409
sg6
I0
sg7
I0
ssI2
(dp410
g4
S'SDH'
p411
sg6
I1
sg7
I0
ssI3
(dp412
g4
S'BOL'
p413
sg6
I1
sg7
I0
sssI1
(dp414
I0
(dp415
g4
S'SDH'
p416
sg6
I1
sg7
I1
ssI1
(dp417
g4
S'PDL'
p418
sg6
I1
sg7
I1
ssI2
(dp419
g4
S'SHL'
p420
sg6
I1
sg7
I1
ssI3
(dp421
g4
S'BOH'
p422
sg6
I1
sg7
I1
sssI2
(dp423
I0
(dp424
g4
S'BOL'
p425
sg6
I1
sg7
I2
ssI1
(dp426
g4
S'SDH'
p427
sg6
I0
sg7
I2
ssI2
(dp428
g4
S'PDH'
p429
sg6
I1
sg7
I2
ssI3
(dp430
g4
S'SHL'
p431
sg6
I0
sg7
I2
sssI3
(dp432
I0
(dp433
g4
S'PDH'
p434
sg6
I1
sg7
I3
ssI1
(dp435
g4
S'SDL'
p436
sg6
I0
sg7
I3
ssI2
(dp437
g4
S'BOH'
p438
sg6
I1
sg7
I3
ssI3
(dp439
g4
S'SHL'
p440
sg6
I0
sg7
I3
sssI4
(dp441
I0
(dp442
g4
S'SHL'
p443
sg6
I0
sg7
I4
ssI1
(dp444
g4
S'PDH'
p445
sg6
I1
sg7
I4
ssI2
(dp446
g4
S'SDL'
p447
sg6
I0
sg7
I4
ssI3
(dp448
g4
S'BOH'
p449
sg6
I0
sg7
I4
sssI5
(dp450
I0
(dp451
g4
S'SDL'
p452
sg6
I0
sg7
I5
ssI1
(dp453
g4
S'PDH'
p454
sg6
I1
sg7
I5
ssI2
(dp455
g4
S'SHH'
p456
sg6
I1
sg7
I5
ssI3
(dp457
g4
S'BOL'
p458
sg6
I0
sg7
I5
sssI6
(dp459
I0
(dp460
g4
S'BOH'
p461
sg6
I0
sg7
I6
ssI1
(dp462
g4
S'SDL'
p463
sg6
I0
sg7
I6
ssI2
(dp464
g4
S'PDL'
p465
sg6
I1
sg7
I6
ssI3
(dp466
g4
S'SHH'
p467
sg6
I1
sg7
I6
sssI7
(dp468
I0
(dp469
g4
S'PDL'
p470
sg6
I0
sg7
I7
ssI1
(dp471
g4
S'SDH'
p472
sg6
I0
sg7
I7
ssI2
(dp473
g4
S'BOL'
p474
sg6
I1
sg7
I7
ssI3
(dp475
g4
S'SHH'
p476
sg6
I0
sg7
I7
sssI8
(dp477
I0
(dp478
g4
S'SHH'
p479
sg6
I0
sg7
I0
ssI1
(dp480
g4
S'SDH'
p481
sg6
I1
sg7
I7
ssI2
(dp482
g4
S'PDL'
p483
sg6
I0
sg7
I6
ssI3
(dp484
g4
S'BOL'
p485
sg6
I1
sg7
I5
sssI9
(dp486
I0
(dp487
g4
S'SDH'
p488
sg6
I0
sg7
I1
ssI1
(dp489
g4
S'PDL'
p490
sg6
I1
sg7
I0
ssI2
(dp491
g4
S'BOL'
p492
sg6
I0
sg7
I7
ssI3
(dp493
g4
S'SHH'
p494
sg6
I0
sg7
I6
sssI10
(dp495
I0
(dp496
g4
S'BOL'
p497
sg6
I0
sg7
I2
ssI1
(dp498
g4
S'PDL'
p499
sg6
I0
sg7
I1
ssI2
(dp500
g4
S'SDH'
p501
sg6
I0
sg7
I0
ssI3
(dp502
g4
S'SHH'
p503
sg6
I1
sg7
I7
sssI11
(dp504
I0
(dp505
g4
S'PDH'
p506
sg6
I0
sg7
I3
ssI1
(dp507
g4
S'SDH'
p508
sg6
I1
sg7
I2
ssI2
(dp509
g4
S'SHL'
p510
sg6
I0
sg7
I1
ssI3
(dp511
g4
S'BOL'
p512
sg6
I0
sg7
I0
sssI12
(dp513
I0
(dp514
g4
S'SHL'
p515
sg6
I1
sg7
I4
ssI1
(dp516
g4
S'SDL'
p517
sg6
I1
sg7
I3
ssI2
(dp518
g4
S'PDH'
p519
sg6
I0
sg7
I2
ssI3
(dp520
g4
S'BOH'
p521
sg6
I0
sg7
I1
sssI13
(dp522
I0
(dp523
g4
S'SDL'
p524
sg6
I1
sg7
I5
ssI1
(dp525
g4
S'PDH'
p526
sg6
I0
sg7
I4
ssI2
(dp527
g4
S'BOH'
p528
sg6
I0
sg7
I3
ssI3
(dp529
g4
S'SHL'
p530
sg6
I1
sg7
I2
sssI14
(dp531
I0
(dp532
g4
S'BOH'
p533
sg6
I1
sg7
I6
ssI1
(dp534
g4
S'PDH'
p535
sg6
I0
sg7
I5
ssI2
(dp536
g4
S'SDL'
p537
sg6
I1
sg7
I4
ssI3
(dp538
g4
S'SHL'
p539
sg6
I1
sg7
I3
sssI15
(dp540
I0
(dp541
g4
S'PDL'
p542
sg6
I1
sg7
I7
ssI1
(dp543
g4
S'SDL'
p544
sg6
I1
sg7
I6
ssI2
(dp545
g4
S'SHH'
p546
sg6
I0
sg7
I5
ssI3
(dp547
g4
S'BOH'
p548
sg6
I1
sg7
I4
ssssS'supergameLengths'
p549
(dp550
I0
I123
sI1
I110
sI2
I85
sI3
I94
ssS'games'
p551
(dp552
S'SDH'
p553
(dp554
I1
(dp555
I1
(lp556
I20
aI20
asI2
(lp557
I20
aI20
assI2
(dp558
I1
(lp559
I41
aI39
asI2
(lp560
I39
aI41
asssS'BOH'
p561
(dp562
I1
(dp563
I1
(lp564
I10
aI10
asI2
(lp565
I11
aI49
assI2
(dp566
I1
(lp567
I49
aI11
asI2
(lp568
I10
aI10
asssS'SDL'
p569
(dp570
I1
(dp571
I1
(lp572
I20
aI20
asI2
(lp573
I20
aI20
assI2
(dp574
I1
(lp575
I59
aI21
asI2
(lp576
I21
aI59
asssS'PDL'
p577
(dp578
I1
(dp579
I1
(lp580
I30
aI30
asI2
(lp581
I19
aI31
assI2
(dp582
I1
(lp583
I31
aI19
asI2
(lp584
I20
aI20
asssS'BOL'
p585
(dp586
I1
(dp587
I1
(lp588
I10
aI10
asI2
(lp589
I29
aI31
assI2
(dp590
I1
(lp591
I31
aI29
asI2
(lp592
I10
aI10
asssS'PDH'
p593
(dp594
I1
(dp595
I1
(lp596
I30
aI30
asI2
(lp597
I1
aI49
assI2
(dp598
I1
(lp599
I49
aI1
asI2
(lp600
I20
aI20
asssS'SHH'
p601
(dp602
I1
(dp603
I1
(lp604
I30
aI30
asI2
(lp605
I-9
aI29
assI2
(dp606
I1
(lp607
I29
aI-9
asI2
(lp608
I10
aI10
asssS'SHL'
p609
(dp610
I1
(dp611
I1
(lp612
I30
aI30
asI2
(lp613
I9
aI11
assI2
(dp614
I1
(lp615
I11
aI9
asI2
(lp616
I10
aI10
assss.