(dp0
I8
(dp1
S'pays'
p2
(dp3
I0
(lp4
S'L'
p5
aS'H'
p6
ag5
ag6
asI1
(lp7
g6
ag5
ag6
ag5
asI2
(lp8
g6
ag5
ag6
ag5
asI3
(lp9
g5
ag6
ag5
ag6
asI4
(lp10
g5
ag6
ag6
ag5
asI5
(lp11
g6
ag6
ag5
ag5
asI6
(lp12
g6
ag5
ag5
ag6
asI7
(lp13
g5
ag5
ag6
ag6
assS'pairs'
p14
(dp15
I0
(lp16
I4
aI5
aI6
aI7
asI1
(lp17
I5
aI6
aI7
aI4
asI2
(lp18
I6
aI7
aI4
aI5
asI3
(lp19
I7
aI4
aI5
aI6
asI4
(lp20
I0
aI3
aI2
aI1
asI5
(lp21
I1
aI0
aI3
aI2
asI6
(lp22
I2
aI1
aI0
aI3
asI7
(lp23
I3
aI2
aI1
aI0
assS'games'
p24
(dp25
I0
(lp26
S'BO'
p27
aS'SD'
p28
aS'SH'
p29
aS'PD'
p30
asI1
(lp31
g29
ag28
ag27
ag30
asI2
(lp32
g30
ag29
ag28
ag27
asI3
(lp33
g28
ag29
ag30
ag27
asI4
(lp34
g27
ag29
ag28
ag30
asI5
(lp35
g29
ag28
ag30
ag27
asI6
(lp36
g30
ag28
ag29
ag27
asI7
(lp37
g28
ag29
ag27
ag30
assS'groups'
p38
(dp39
I0
(lp40
I0
aI0
aI0
aI0
asI1
(lp41
I1
aI1
aI1
aI1
asI2
(lp42
I2
aI2
aI2
aI2
asI3
(lp43
I3
aI3
aI3
aI3
asI4
(lp44
I0
aI3
aI2
aI1
asI5
(lp45
I1
aI0
aI3
aI2
asI6
(lp46
I2
aI1
aI0
aI3
asI7
(lp47
I3
aI2
aI1
aI0
assS'roles'
p48
(dp49
I0
(lp50
I0
aI0
aI0
aI1
asI1
(lp51
I0
aI1
aI0
aI1
asI2
(lp52
I1
aI1
aI1
aI0
asI3
(lp53
I1
aI1
aI0
aI1
asI4
(lp54
I1
aI0
aI0
aI0
asI5
(lp55
I1
aI1
aI1
aI1
asI6
(lp56
I0
aI0
aI1
aI0
asI7
(lp57
I0
aI0
aI1
aI0
asssI10
(dp58
g2
(dp59
I0
(lp60
g6
ag5
ag6
ag5
asI1
(lp61
g6
ag5
ag6
ag5
asI2
(lp62
g6
ag5
ag6
ag5
asI3
(lp63
g6
ag5
ag6
ag5
asI4
(lp64
g6
ag5
ag6
ag5
asI5
(lp65
g6
ag5
ag6
ag5
asI6
(lp66
g6
ag5
ag6
ag5
asI7
(lp67
g6
ag5
ag6
ag5
asI8
(lp68
g6
ag5
ag6
ag5
asI9
(lp69
g6
ag5
ag6
ag5
assg14
(dp70
I0
(lp71
I5
aI6
aI7
aI8
asI1
(lp72
I6
aI7
aI8
aI9
asI2
(lp73
I7
aI8
aI9
aI5
asI3
(lp74
I8
aI9
aI5
aI6
asI4
(lp75
I9
aI5
aI6
aI7
asI5
(lp76
I0
aI4
aI3
aI2
asI6
(lp77
I1
aI0
aI4
aI3
asI7
(lp78
I2
aI1
aI0
aI4
asI8
(lp79
I3
aI2
aI1
aI0
asI9
(lp80
I4
aI3
aI2
aI1
assg24
(dp81
I0
(lp82
g27
ag30
ag29
ag28
asI1
(lp83
g29
ag30
ag27
ag28
asI2
(lp84
g28
ag29
ag27
ag30
asI3
(lp85
g30
ag29
ag28
ag27
asI4
(lp86
g30
ag29
ag28
ag27
asI5
(lp87
g27
ag29
ag28
ag30
asI6
(lp88
g29
ag30
ag28
ag27
asI7
(lp89
g28
ag30
ag29
ag27
asI8
(lp90
g30
ag29
ag27
ag28
asI9
(lp91
g30
ag29
ag27
ag28
assg38
(dp92
I0
(lp93
I0
aI0
aI0
aI0
asI1
(lp94
I1
aI1
aI1
aI1
asI2
(lp95
I2
aI2
aI2
aI2
asI3
(lp96
I3
aI3
aI3
aI3
asI4
(lp97
I4
aI4
aI4
aI4
asI5
(lp98
I0
aI4
aI3
aI2
asI6
(lp99
I1
aI0
aI4
aI3
asI7
(lp100
I2
aI1
aI0
aI4
asI8
(lp101
I3
aI2
aI1
aI0
asI9
(lp102
I4
aI3
aI2
aI1
assg48
(dp103
I0
(lp104
I0
aI1
aI0
aI0
asI1
(lp105
I0
aI0
aI0
aI1
asI2
(lp106
I0
aI0
aI1
aI1
asI3
(lp107
I0
aI0
aI0
aI1
asI4
(lp108
I1
aI1
aI0
aI0
asI5
(lp109
I1
aI0
aI1
aI0
asI6
(lp110
I1
aI0
aI1
aI0
asI7
(lp111
I1
aI1
aI1
aI1
asI8
(lp112
I1
aI1
aI1
aI1
asI9
(lp113
I0
aI1
aI0
aI0
asssI12
(dp114
g2
(dp115
I0
(lp116
g6
ag5
ag5
ag6
asI1
(lp117
g5
ag6
ag5
ag6
asI2
(lp118
g5
ag5
ag6
ag6
asI3
(lp119
g6
ag5
ag5
ag6
asI4
(lp120
g5
ag6
ag5
ag6
asI5
(lp121
g5
ag5
ag6
ag6
asI6
(lp122
g6
ag5
ag5
ag6
asI7
(lp123
g5
ag5
ag6
ag6
asI8
(lp124
g5
ag6
ag5
ag6
asI9
(lp125
g6
ag5
ag5
ag6
asI10
(lp126
g5
ag5
ag6
ag6
asI11
(lp127
g5
ag6
ag5
ag6
assg14
(dp128
I0
(lp129
I6
aI7
aI8
aI9
asI1
(lp130
I7
aI8
aI9
aI10
asI2
(lp131
I8
aI9
aI10
aI11
asI3
(lp132
I9
aI10
aI11
aI6
asI4
(lp133
I10
aI11
aI6
aI7
asI5
(lp134
I11
aI6
aI7
aI8
asI6
(lp135
I0
aI5
aI4
aI3
asI7
(lp136
I1
aI0
aI5
aI4
asI8
(lp137
I2
aI1
aI0
aI5
asI9
(lp138
I3
aI2
aI1
aI0
asI10
(lp139
I4
aI3
aI2
aI1
asI11
(lp140
I5
aI4
aI3
aI2
assg24
(dp141
I0
(lp142
g30
ag28
ag29
ag27
asI1
(lp143
g27
ag28
ag30
ag29
asI2
(lp144
g30
ag29
ag27
ag28
asI3
(lp145
g28
ag30
ag27
ag29
asI4
(lp146
g28
ag30
ag27
ag29
asI5
(lp147
g29
ag28
ag30
ag27
asI6
(lp148
g30
ag28
ag27
ag29
asI7
(lp149
g27
ag28
ag30
ag29
asI8
(lp150
g30
ag28
ag29
ag27
asI9
(lp151
g28
ag29
ag30
ag27
asI10
(lp152
g28
ag30
ag27
ag29
asI11
(lp153
g29
ag30
ag27
ag28
assg38
(dp154
I0
(lp155
I0
aI0
aI0
aI0
asI1
(lp156
I1
aI1
aI1
aI1
asI2
(lp157
I2
aI2
aI2
aI2
asI3
(lp158
I3
aI3
aI3
aI3
asI4
(lp159
I4
aI4
aI4
aI4
asI5
(lp160
I5
aI5
aI5
aI5
asI6
(lp161
I0
aI5
aI4
aI3
asI7
(lp162
I1
aI0
aI5
aI4
asI8
(lp163
I2
aI1
aI0
aI5
asI9
(lp164
I3
aI2
aI1
aI0
asI10
(lp165
I4
aI3
aI2
aI1
asI11
(lp166
I5
aI4
aI3
aI2
assg48
(dp167
I0
(lp168
I1
aI0
aI1
aI0
asI1
(lp169
I1
aI1
aI0
aI0
asI2
(lp170
I1
aI0
aI1
aI0
asI3
(lp171
I0
aI0
aI1
aI1
asI4
(lp172
I0
aI0
aI1
aI0
asI5
(lp173
I1
aI0
aI1
aI1
asI6
(lp174
I0
aI1
aI0
aI0
asI7
(lp175
I0
aI1
aI0
aI1
asI8
(lp176
I0
aI0
aI0
aI0
asI9
(lp177
I1
aI1
aI1
aI1
asI10
(lp178
I1
aI1
aI0
aI1
asI11
(lp179
I0
aI1
aI0
aI1
asssI14
(dp180
g2
(dp181
I0
(lp182
g5
ag6
ag5
ag6
asI1
(lp183
g5
ag6
ag5
ag6
asI2
(lp184
g5
ag6
ag6
ag5
asI3
(lp185
g5
ag5
ag6
ag6
asI4
(lp186
g5
ag5
ag5
ag6
asI5
(lp187
g6
ag5
ag6
ag6
asI6
(lp188
g6
ag5
ag5
ag6
asI7
(lp189
g5
ag5
ag6
ag6
asI8
(lp190
g5
ag6
ag5
ag6
asI9
(lp191
g5
ag6
ag5
ag6
asI10
(lp192
g5
ag6
ag5
ag6
asI11
(lp193
g5
ag5
ag6
ag6
asI12
(lp194
g6
ag5
ag6
ag5
asI13
(lp195
g6
ag5
ag5
ag6
assg14
(dp196
I0
(lp197
I7
aI8
aI9
aI10
asI1
(lp198
I8
aI9
aI10
aI11
asI2
(lp199
I9
aI10
aI11
aI12
asI3
(lp200
I10
aI11
aI12
aI13
asI4
(lp201
I11
aI12
aI13
aI7
asI5
(lp202
I12
aI13
aI7
aI8
asI6
(lp203
I13
aI7
aI8
aI9
asI7
(lp204
I0
aI6
aI5
aI4
asI8
(lp205
I1
aI0
aI6
aI5
asI9
(lp206
I2
aI1
aI0
aI6
asI10
(lp207
I3
aI2
aI1
aI0
asI11
(lp208
I4
aI3
aI2
aI1
asI12
(lp209
I5
aI4
aI3
aI2
asI13
(lp210
I6
aI5
aI4
aI3
assg24
(dp211
I0
(lp212
g28
ag30
ag27
ag29
asI1
(lp213
g27
ag30
ag28
ag29
asI2
(lp214
g29
ag27
ag30
ag28
asI3
(lp215
g30
ag27
ag29
ag28
asI4
(lp216
g28
ag27
ag30
ag29
asI5
(lp217
g30
ag29
ag27
ag28
asI6
(lp218
g27
ag30
ag29
ag28
asI7
(lp219
g28
ag30
ag27
ag29
asI8
(lp220
g27
ag30
ag29
ag28
asI9
(lp221
g29
ag30
ag27
ag28
asI10
(lp222
g30
ag27
ag28
ag29
asI11
(lp223
g28
ag27
ag30
ag29
asI12
(lp224
g30
ag27
ag29
ag28
asI13
(lp225
g27
ag29
ag30
ag28
assg38
(dp226
I0
(lp227
I0
aI0
aI0
aI0
asI1
(lp228
I1
aI1
aI1
aI1
asI2
(lp229
I2
aI2
aI2
aI2
asI3
(lp230
I3
aI3
aI3
aI3
asI4
(lp231
I4
aI4
aI4
aI4
asI5
(lp232
I5
aI5
aI5
aI5
asI6
(lp233
I6
aI6
aI6
aI6
asI7
(lp234
I0
aI6
aI5
aI4
asI8
(lp235
I1
aI0
aI6
aI5
asI9
(lp236
I2
aI1
aI0
aI6
asI10
(lp237
I3
aI2
aI1
aI0
asI11
(lp238
I4
aI3
aI2
aI1
asI12
(lp239
I5
aI4
aI3
aI2
asI13
(lp240
I6
aI5
aI4
aI3
assg48
(dp241
I0
(lp242
I1
aI1
aI1
aI0
asI1
(lp243
I0
aI0
aI1
aI0
asI2
(lp244
I1
aI1
aI0
aI0
asI3
(lp245
I0
aI0
aI1
aI0
asI4
(lp246
I0
aI1
aI0
aI0
asI5
(lp247
I0
aI0
aI0
aI1
asI6
(lp248
I1
aI1
aI0
aI1
asI7
(lp249
I0
aI0
aI1
aI1
asI8
(lp250
I1
aI0
aI1
aI0
asI9
(lp251
I0
aI1
aI0
aI0
asI10
(lp252
I1
aI0
aI0
aI1
asI11
(lp253
I1
aI1
aI1
aI1
asI12
(lp254
I1
aI0
aI0
aI1
asI13
(lp255
I0
aI1
aI1
aI1
asssI16
(dp256
g2
(dp257
I0
(lp258
g5
ag5
ag6
ag6
asI1
(lp259
g6
ag5
ag6
ag6
asI2
(lp260
g6
ag5
ag6
ag5
asI3
(lp261
g5
ag5
ag6
ag6
asI4
(lp262
g5
ag6
ag6
ag5
asI5
(lp263
g5
ag5
ag6
ag5
asI6
(lp264
g5
ag5
ag6
ag6
asI7
(lp265
g6
ag6
ag5
ag5
asI8
(lp266
g5
ag6
ag6
ag5
asI9
(lp267
g6
ag5
ag5
ag6
asI10
(lp268
g6
ag5
ag6
ag5
asI11
(lp269
g5
ag5
ag6
ag6
asI12
(lp270
g5
ag5
ag6
ag6
asI13
(lp271
g5
ag6
ag6
ag5
asI14
(lp272
g5
ag5
ag6
ag6
asI15
(lp273
g6
ag5
ag6
ag5
assg14
(dp274
I0
(lp275
I8
aI9
aI10
aI11
asI1
(lp276
I9
aI10
aI11
aI12
asI2
(lp277
I10
aI11
aI12
aI13
asI3
(lp278
I11
aI12
aI13
aI14
asI4
(lp279
I12
aI13
aI14
aI15
asI5
(lp280
I13
aI14
aI15
aI8
asI6
(lp281
I14
aI15
aI8
aI9
asI7
(lp282
I15
aI8
aI9
aI10
asI8
(lp283
I0
aI7
aI6
aI5
asI9
(lp284
I1
aI0
aI7
aI6
asI10
(lp285
I2
aI1
aI0
aI7
asI11
(lp286
I3
aI2
aI1
aI0
asI12
(lp287
I4
aI3
aI2
aI1
asI13
(lp288
I5
aI4
aI3
aI2
asI14
(lp289
I6
aI5
aI4
aI3
asI15
(lp290
I7
aI6
aI5
aI4
assg24
(dp291
I0
(lp292
g27
ag28
ag29
ag30
asI1
(lp293
g29
ag28
ag27
ag30
asI2
(lp294
g30
ag29
ag28
ag27
asI3
(lp295
g28
ag29
ag30
ag27
asI4
(lp296
g27
ag28
ag29
ag30
asI5
(lp297
g29
ag28
ag27
ag30
asI6
(lp298
g30
ag29
ag28
ag27
asI7
(lp299
g28
ag29
ag30
ag27
asI8
(lp300
g27
ag29
ag28
ag30
asI9
(lp301
g29
ag28
ag30
ag27
asI10
(lp302
g30
ag28
ag29
ag27
asI11
(lp303
g28
ag29
ag27
ag30
asI12
(lp304
g27
ag29
ag28
ag30
asI13
(lp305
g29
ag28
ag30
ag27
asI14
(lp306
g30
ag28
ag29
ag27
asI15
(lp307
g28
ag29
ag27
ag30
assg38
(dp308
I0
(lp309
I0
aI0
aI0
aI0
asI1
(lp310
I1
aI1
aI1
aI1
asI2
(lp311
I2
aI2
aI2
aI2
asI3
(lp312
I3
aI3
aI3
aI3
asI4
(lp313
I4
aI4
aI4
aI4
asI5
(lp314
I5
aI5
aI5
aI5
asI6
(lp315
I6
aI6
aI6
aI6
asI7
(lp316
I7
aI7
aI7
aI7
asI8
(lp317
I0
aI7
aI6
aI5
asI9
(lp318
I1
aI0
aI7
aI6
asI10
(lp319
I2
aI1
aI0
aI7
asI11
(lp320
I3
aI2
aI1
aI0
asI12
(lp321
I4
aI3
aI2
aI1
asI13
(lp322
I5
aI4
aI3
aI2
asI14
(lp323
I6
aI5
aI4
aI3
asI15
(lp324
I7
aI6
aI5
aI4
assg48
(dp325
I0
(lp326
I0
aI0
aI0
aI0
asI1
(lp327
I1
aI1
aI1
aI0
asI2
(lp328
I0
aI1
aI1
aI0
asI3
(lp329
I0
aI1
aI1
aI0
asI4
(lp330
I0
aI1
aI1
aI1
asI5
(lp331
I0
aI0
aI0
aI1
asI6
(lp332
I1
aI0
aI0
aI0
asI7
(lp333
I0
aI0
aI0
aI0
asI8
(lp334
I1
aI1
aI1
aI0
asI9
(lp335
I0
aI1
aI1
aI1
asI10
(lp336
I1
aI0
aI1
aI1
asI11
(lp337
I1
aI0
aI0
aI1
asI12
(lp338
I1
aI0
aI0
aI1
asI13
(lp339
I1
aI0
aI0
aI1
asI14
(lp340
I0
aI1
aI0
aI1
asI15
(lp341
I1
aI1
aI1
aI0
asssI18
(dp342
g2
(dp343
I0
(lp344
g5
ag5
ag6
ag6
asI1
(lp345
g6
ag6
ag5
ag6
asI2
(lp346
g5
ag6
ag5
ag6
asI3
(lp347
g5
ag5
ag5
ag6
asI4
(lp348
g6
ag5
ag5
ag6
asI5
(lp349
g6
ag6
ag5
ag5
asI6
(lp350
g5
ag5
ag6
ag6
asI7
(lp351
g6
ag6
ag5
ag5
asI8
(lp352
g5
ag6
ag6
ag5
asI9
(lp353
g5
ag6
ag5
ag6
asI10
(lp354
g6
ag5
ag6
ag5
asI11
(lp355
g5
ag6
ag6
ag5
asI12
(lp356
g5
ag6
ag5
ag6
asI13
(lp357
g6
ag5
ag5
ag6
asI14
(lp358
g6
ag5
ag5
ag6
asI15
(lp359
g5
ag6
ag5
ag6
asI16
(lp360
g6
ag5
ag5
ag6
asI17
(lp361
g5
ag6
ag6
ag5
assg14
(dp362
I0
(lp363
I9
aI10
aI11
aI12
asI1
(lp364
I10
aI11
aI12
aI13
asI2
(lp365
I11
aI12
aI13
aI14
asI3
(lp366
I12
aI13
aI14
aI15
asI4
(lp367
I13
aI14
aI15
aI16
asI5
(lp368
I14
aI15
aI16
aI17
asI6
(lp369
I15
aI16
aI17
aI9
asI7
(lp370
I16
aI17
aI9
aI10
asI8
(lp371
I17
aI9
aI10
aI11
asI9
(lp372
I0
aI8
aI7
aI6
asI10
(lp373
I1
aI0
aI8
aI7
asI11
(lp374
I2
aI1
aI0
aI8
asI12
(lp375
I3
aI2
aI1
aI0
asI13
(lp376
I4
aI3
aI2
aI1
asI14
(lp377
I5
aI4
aI3
aI2
asI15
(lp378
I6
aI5
aI4
aI3
asI16
(lp379
I7
aI6
aI5
aI4
asI17
(lp380
I8
aI7
aI6
aI5
assg24
(dp381
I0
(lp382
g27
ag30
ag28
ag29
asI1
(lp383
g27
ag30
ag28
ag29
asI2
(lp384
g29
ag27
ag30
ag28
asI3
(lp385
g30
ag27
ag29
ag28
asI4
(lp386
g28
ag27
ag30
ag29
asI5
(lp387
g30
ag27
ag28
ag29
asI6
(lp388
g29
ag27
ag30
ag28
asI7
(lp389
g30
ag27
ag29
ag28
asI8
(lp390
g28
ag30
ag29
ag27
asI9
(lp391
g27
ag30
ag29
ag28
asI10
(lp392
g27
ag30
ag29
ag28
asI11
(lp393
g29
ag30
ag28
ag27
asI12
(lp394
g30
ag27
ag28
ag29
asI13
(lp395
g28
ag27
ag30
ag29
asI14
(lp396
g30
ag27
ag29
ag28
asI15
(lp397
g29
ag27
ag30
ag28
asI16
(lp398
g30
ag27
ag28
ag29
asI17
(lp399
g28
ag27
ag30
ag29
assg38
(dp400
I0
(lp401
I0
aI0
aI0
aI0
asI1
(lp402
I1
aI1
aI1
aI1
asI2
(lp403
I2
aI2
aI2
aI2
asI3
(lp404
I3
aI3
aI3
aI3
asI4
(lp405
I4
aI4
aI4
aI4
asI5
(lp406
I5
aI5
aI5
aI5
asI6
(lp407
I6
aI6
aI6
aI6
asI7
(lp408
I7
aI7
aI7
aI7
asI8
(lp409
I8
aI8
aI8
aI8
asI9
(lp410
I0
aI8
aI7
aI6
asI10
(lp411
I1
aI0
aI8
aI7
asI11
(lp412
I2
aI1
aI0
aI8
asI12
(lp413
I3
aI2
aI1
aI0
asI13
(lp414
I4
aI3
aI2
aI1
asI14
(lp415
I5
aI4
aI3
aI2
asI15
(lp416
I6
aI5
aI4
aI3
asI16
(lp417
I7
aI6
aI5
aI4
asI17
(lp418
I8
aI7
aI6
aI5
assg48
(dp419
I0
(lp420
I1
aI1
aI1
aI1
asI1
(lp421
I1
aI1
aI1
aI0
asI2
(lp422
I1
aI0
aI0
aI1
asI3
(lp423
I0
aI0
aI1
aI1
asI4
(lp424
I0
aI0
aI0
aI1
asI5
(lp425
I1
aI1
aI0
aI0
asI6
(lp426
I1
aI0
aI1
aI0
asI7
(lp427
I0
aI1
aI1
aI1
asI8
(lp428
I1
aI0
aI0
aI1
asI9
(lp429
I0
aI1
aI0
aI1
asI10
(lp430
I0
aI0
aI1
aI0
asI11
(lp431
I0
aI0
aI0
aI0
asI12
(lp432
I1
aI1
aI0
aI0
asI13
(lp433
I1
aI1
aI1
aI1
asI14
(lp434
I0
aI1
aI0
aI0
asI15
(lp435
I0
aI0
aI1
aI0
asI16
(lp436
I1
aI1
aI1
aI0
asI17
(lp437
I0
aI0
aI0
aI1
asssI20
(dp438
g2
(dp439
I0
(lp440
g5
ag6
ag5
ag6
asI1
(lp441
g6
ag6
ag5
ag5
asI2
(lp442
g5
ag6
ag6
ag5
asI3
(lp443
g5
ag6
ag5
ag6
asI4
(lp444
g5
ag6
ag6
ag5
asI5
(lp445
g6
ag5
ag5
ag6
asI6
(lp446
g5
ag6
ag5
ag6
asI7
(lp447
g5
ag6
ag6
ag5
asI8
(lp448
g5
ag6
ag6
ag5
asI9
(lp449
g5
ag6
ag5
ag6
asI10
(lp450
g5
ag6
ag6
ag5
asI11
(lp451
g6
ag6
ag5
ag5
asI12
(lp452
g5
ag6
ag5
ag6
asI13
(lp453
g5
ag6
ag5
ag6
asI14
(lp454
g5
ag6
ag6
ag5
asI15
(lp455
g6
ag6
ag5
ag5
asI16
(lp456
g5
ag5
ag6
ag6
asI17
(lp457
g5
ag6
ag5
ag5
asI18
(lp458
g5
ag6
ag5
ag6
asI19
(lp459
g5
ag6
ag6
ag6
assg14
(dp460
I0
(lp461
I10
aI11
aI12
aI13
asI1
(lp462
I11
aI12
aI13
aI14
asI2
(lp463
I12
aI13
aI14
aI15
asI3
(lp464
I13
aI14
aI15
aI16
asI4
(lp465
I14
aI15
aI16
aI17
asI5
(lp466
I15
aI16
aI17
aI18
asI6
(lp467
I16
aI17
aI18
aI19
asI7
(lp468
I17
aI18
aI19
aI10
asI8
(lp469
I18
aI19
aI10
aI11
asI9
(lp470
I19
aI10
aI11
aI12
asI10
(lp471
I0
aI9
aI8
aI7
asI11
(lp472
I1
aI0
aI9
aI8
asI12
(lp473
I2
aI1
aI0
aI9
asI13
(lp474
I3
aI2
aI1
aI0
asI14
(lp475
I4
aI3
aI2
aI1
asI15
(lp476
I5
aI4
aI3
aI2
asI16
(lp477
I6
aI5
aI4
aI3
asI17
(lp478
I7
aI6
aI5
aI4
asI18
(lp479
I8
aI7
aI6
aI5
asI19
(lp480
I9
aI8
aI7
aI6
assg24
(dp481
I0
(lp482
g27
ag30
ag28
ag29
asI1
(lp483
g28
ag30
ag27
ag29
asI2
(lp484
g29
ag28
ag27
ag30
asI3
(lp485
g30
ag28
ag29
ag27
asI4
(lp486
g30
ag28
ag29
ag27
asI5
(lp487
g27
ag28
ag30
ag29
asI6
(lp488
g30
ag28
ag27
ag29
asI7
(lp489
g29
ag30
ag27
ag28
asI8
(lp490
g28
ag30
ag29
ag27
asI9
(lp491
g28
ag30
ag29
ag27
asI10
(lp492
g27
ag30
ag29
ag28
asI11
(lp493
g28
ag30
ag29
ag27
asI12
(lp494
g29
ag30
ag28
ag27
asI13
(lp495
g30
ag28
ag27
ag29
asI14
(lp496
g30
ag28
ag27
ag29
asI15
(lp497
g27
ag28
ag29
ag30
asI16
(lp498
g30
ag28
ag29
ag27
asI17
(lp499
g29
ag28
ag30
ag27
asI18
(lp500
g28
ag30
ag27
ag29
asI19
(lp501
g28
ag30
ag27
ag29
assg38
(dp502
I0
(lp503
I0
aI0
aI0
aI0
asI1
(lp504
I1
aI1
aI1
aI1
asI2
(lp505
I2
aI2
aI2
aI2
asI3
(lp506
I3
aI3
aI3
aI3
asI4
(lp507
I4
aI4
aI4
aI4
asI5
(lp508
I5
aI5
aI5
aI5
asI6
(lp509
I6
aI6
aI6
aI6
asI7
(lp510
I7
aI7
aI7
aI7
asI8
(lp511
I8
aI8
aI8
aI8
asI9
(lp512
I9
aI9
aI9
aI9
asI10
(lp513
I0
aI9
aI8
aI7
asI11
(lp514
I1
aI0
aI9
aI8
asI12
(lp515
I2
aI1
aI0
aI9
asI13
(lp516
I3
aI2
aI1
aI0
asI14
(lp517
I4
aI3
aI2
aI1
asI15
(lp518
I5
aI4
aI3
aI2
asI16
(lp519
I6
aI5
aI4
aI3
asI17
(lp520
I7
aI6
aI5
aI4
asI18
(lp521
I8
aI7
aI6
aI5
asI19
(lp522
I9
aI8
aI7
aI6
assg48
(dp523
I0
(lp524
I0
aI0
aI0
aI0
asI1
(lp525
I0
aI1
aI0
aI1
asI2
(lp526
I1
aI0
aI0
aI1
asI3
(lp527
I0
aI0
aI1
aI1
asI4
(lp528
I1
aI1
aI1
aI0
asI5
(lp529
I1
aI0
aI1
aI0
asI6
(lp530
I0
aI1
aI0
aI1
asI7
(lp531
I0
aI0
aI1
aI1
asI8
(lp532
I1
aI0
aI0
aI0
asI9
(lp533
I0
aI0
aI0
aI1
asI10
(lp534
I1
aI1
aI1
aI0
asI11
(lp535
I1
aI1
aI1
aI1
asI12
(lp536
I0
aI0
aI1
aI0
asI13
(lp537
I1
aI1
aI1
aI1
asI14
(lp538
I0
aI1
aI1
aI0
asI15
(lp539
I0
aI0
aI0
aI0
asI16
(lp540
I1
aI1
aI0
aI0
asI17
(lp541
I1
aI0
aI0
aI1
asI18
(lp542
I0
aI1
aI1
aI1
asI19
(lp543
I1
aI1
aI0
aI0
asssI22
(dp544
g2
(dp545
I0
(lp546
g5
ag5
ag6
ag6
asI1
(lp547
g6
ag6
ag6
ag5
asI2
(lp548
g6
ag5
ag6
ag5
asI3
(lp549
g5
ag6
ag6
ag5
asI4
(lp550
g5
ag6
ag6
ag5
asI5
(lp551
g5
ag6
ag5
ag6
asI6
(lp552
g5
ag6
ag5
ag6
asI7
(lp553
g6
ag6
ag5
ag6
asI8
(lp554
g5
ag6
ag5
ag6
asI9
(lp555
g6
ag6
ag5
ag5
asI10
(lp556
g5
ag6
ag6
ag5
asI11
(lp557
g5
ag6
ag5
ag6
asI12
(lp558
g6
ag5
ag6
ag5
asI13
(lp559
g6
ag6
ag6
ag5
asI14
(lp560
g5
ag5
ag6
ag6
asI15
(lp561
g5
ag6
ag6
ag5
asI16
(lp562
g5
ag6
ag6
ag5
asI17
(lp563
g5
ag6
ag6
ag5
asI18
(lp564
g6
ag6
ag5
ag5
asI19
(lp565
g5
ag6
ag5
ag6
asI20
(lp566
g6
ag6
ag5
ag6
asI21
(lp567
g5
ag6
ag5
ag6
assg14
(dp568
I0
(lp569
I11
aI12
aI13
aI14
asI1
(lp570
I12
aI13
aI14
aI15
asI2
(lp571
I13
aI14
aI15
aI16
asI3
(lp572
I14
aI15
aI16
aI17
asI4
(lp573
I15
aI16
aI17
aI18
asI5
(lp574
I16
aI17
aI18
aI19
asI6
(lp575
I17
aI18
aI19
aI20
asI7
(lp576
I18
aI19
aI20
aI21
asI8
(lp577
I19
aI20
aI21
aI11
asI9
(lp578
I20
aI21
aI11
aI12
asI10
(lp579
I21
aI11
aI12
aI13
asI11
(lp580
I0
aI10
aI9
aI8
asI12
(lp581
I1
aI0
aI10
aI9
asI13
(lp582
I2
aI1
aI0
aI10
asI14
(lp583
I3
aI2
aI1
aI0
asI15
(lp584
I4
aI3
aI2
aI1
asI16
(lp585
I5
aI4
aI3
aI2
asI17
(lp586
I6
aI5
aI4
aI3
asI18
(lp587
I7
aI6
aI5
aI4
asI19
(lp588
I8
aI7
aI6
aI5
asI20
(lp589
I9
aI8
aI7
aI6
asI21
(lp590
I10
aI9
aI8
aI7
assg24
(dp591
I0
(lp592
g28
ag30
ag29
ag27
asI1
(lp593
g27
ag28
ag30
ag29
asI2
(lp594
g30
ag28
ag27
ag29
asI3
(lp595
g29
ag30
ag28
ag27
asI4
(lp596
g28
ag30
ag29
ag27
asI5
(lp597
g27
ag28
ag30
ag29
asI6
(lp598
g30
ag28
ag27
ag29
asI7
(lp599
g29
ag28
ag30
ag27
asI8
(lp600
g30
ag28
ag29
ag27
asI9
(lp601
g27
ag30
ag29
ag28
asI10
(lp602
g28
ag30
ag29
ag27
asI11
(lp603
g28
ag30
ag29
ag27
asI12
(lp604
g27
ag30
ag29
ag28
asI13
(lp605
g30
ag28
ag29
ag27
asI14
(lp606
g29
ag28
ag30
ag27
asI15
(lp607
g28
ag30
ag27
ag29
asI16
(lp608
g27
ag30
ag28
ag29
asI17
(lp609
g30
ag28
ag29
ag27
asI18
(lp610
g29
ag28
ag30
ag27
asI19
(lp611
g30
ag28
ag27
ag29
asI20
(lp612
g27
ag28
ag30
ag29
asI21
(lp613
g28
ag30
ag29
ag27
assg38
(dp614
I0
(lp615
I0
aI0
aI0
aI0
asI1
(lp616
I1
aI1
aI1
aI1
asI2
(lp617
I2
aI2
aI2
aI2
asI3
(lp618
I3
aI3
aI3
aI3
asI4
(lp619
I4
aI4
aI4
aI4
asI5
(lp620
I5
aI5
aI5
aI5
asI6
(lp621
I6
aI6
aI6
aI6
asI7
(lp622
I7
aI7
aI7
aI7
asI8
(lp623
I8
aI8
aI8
aI8
asI9
(lp624
I9
aI9
aI9
aI9
asI10
(lp625
I10
aI10
aI10
aI10
asI11
(lp626
I0
aI10
aI9
aI8
asI12
(lp627
I1
aI0
aI10
aI9
asI13
(lp628
I2
aI1
aI0
aI10
asI14
(lp629
I3
aI2
aI1
aI0
asI15
(lp630
I4
aI3
aI2
aI1
asI16
(lp631
I5
aI4
aI3
aI2
asI17
(lp632
I6
aI5
aI4
aI3
asI18
(lp633
I7
aI6
aI5
aI4
asI19
(lp634
I8
aI7
aI6
aI5
asI20
(lp635
I9
aI8
aI7
aI6
asI21
(lp636
I10
aI9
aI8
aI7
assg48
(dp637
I0
(lp638
I1
aI1
aI1
aI0
asI1
(lp639
I1
aI0
aI0
aI0
asI2
(lp640
I0
aI1
aI1
aI1
asI3
(lp641
I0
aI0
aI1
aI0
asI4
(lp642
I1
aI1
aI1
aI1
asI5
(lp643
I0
aI0
aI1
aI0
asI6
(lp644
I0
aI1
aI0
aI0
asI7
(lp645
I0
aI0
aI1
aI0
asI8
(lp646
I0
aI0
aI1
aI1
asI9
(lp647
I0
aI1
aI1
aI1
asI10
(lp648
I0
aI0
aI1
aI1
asI11
(lp649
I0
aI1
aI0
aI0
asI12
(lp650
I0
aI0
aI0
aI0
asI13
(lp651
I1
aI1
aI0
aI0
asI14
(lp652
I1
aI0
aI1
aI1
asI15
(lp653
I0
aI1
aI0
aI1
asI16
(lp654
I1
aI0
aI0
aI0
asI17
(lp655
I1
aI1
aI0
aI1
asI18
(lp656
I1
aI0
aI0
aI0
asI19
(lp657
I1
aI1
aI1
aI1
asI20
(lp658
I1
aI1
aI0
aI1
asI21
(lp659
I1
aI0
aI0
aI1
asssI24
(dp660
g2
(dp661
I0
(lp662
g5
ag6
ag6
ag6
asI1
(lp663
g5
ag5
ag6
ag6
asI2
(lp664
g6
ag5
ag5
ag6
asI3
(lp665
g5
ag6
ag6
ag5
asI4
(lp666
g5
ag6
ag6
ag5
asI5
(lp667
g5
ag6
ag6
ag5
asI6
(lp668
g5
ag5
ag5
ag6
asI7
(lp669
g5
ag6
ag6
ag5
asI8
(lp670
g6
ag5
ag6
ag5
asI9
(lp671
g5
ag6
ag5
ag6
asI10
(lp672
g5
ag6
ag5
ag6
asI11
(lp673
g6
ag6
ag5
ag5
asI12
(lp674
g5
ag6
ag5
ag6
asI13
(lp675
g5
ag6
ag5
ag6
asI14
(lp676
g6
ag5
ag6
ag5
asI15
(lp677
g5
ag5
ag6
ag6
asI16
(lp678
g5
ag6
ag5
ag6
asI17
(lp679
g5
ag6
ag6
ag6
asI18
(lp680
g5
ag6
ag6
ag5
asI19
(lp681
g5
ag5
ag6
ag5
asI20
(lp682
g6
ag6
ag5
ag5
asI21
(lp683
g5
ag5
ag6
ag6
asI22
(lp684
g5
ag6
ag6
ag5
asI23
(lp685
g6
ag6
ag5
ag5
assg14
(dp686
I0
(lp687
I12
aI13
aI14
aI15
asI1
(lp688
I13
aI14
aI15
aI16
asI2
(lp689
I14
aI15
aI16
aI17
asI3
(lp690
I15
aI16
aI17
aI18
asI4
(lp691
I16
aI17
aI18
aI19
asI5
(lp692
I17
aI18
aI19
aI20
asI6
(lp693
I18
aI19
aI20
aI21
asI7
(lp694
I19
aI20
aI21
aI22
asI8
(lp695
I20
aI21
aI22
aI23
asI9
(lp696
I21
aI22
aI23
aI12
asI10
(lp697
I22
aI23
aI12
aI13
asI11
(lp698
I23
aI12
aI13
aI14
asI12
(lp699
I0
aI11
aI10
aI9
asI13
(lp700
I1
aI0
aI11
aI10
asI14
(lp701
I2
aI1
aI0
aI11
asI15
(lp702
I3
aI2
aI1
aI0
asI16
(lp703
I4
aI3
aI2
aI1
asI17
(lp704
I5
aI4
aI3
aI2
asI18
(lp705
I6
aI5
aI4
aI3
asI19
(lp706
I7
aI6
aI5
aI4
asI20
(lp707
I8
aI7
aI6
aI5
asI21
(lp708
I9
aI8
aI7
aI6
asI22
(lp709
I10
aI9
aI8
aI7
asI23
(lp710
I11
aI10
aI9
aI8
assg24
(dp711
I0
(lp712
g28
ag27
ag30
ag29
asI1
(lp713
g30
ag27
ag28
ag29
asI2
(lp714
g29
ag27
ag30
ag28
asI3
(lp715
g30
ag27
ag29
ag28
asI4
(lp716
g28
ag30
ag27
ag29
asI5
(lp717
g27
ag30
ag28
ag29
asI6
(lp718
g29
ag30
ag27
ag28
asI7
(lp719
g27
ag30
ag29
ag28
asI8
(lp720
g28
ag30
ag27
ag29
asI9
(lp721
g27
ag30
ag28
ag29
asI10
(lp722
g29
ag27
ag30
ag28
asI11
(lp723
g30
ag27
ag29
ag28
asI12
(lp724
g28
ag27
ag30
ag29
asI13
(lp725
g30
ag27
ag29
ag28
asI14
(lp726
g29
ag27
ag30
ag28
asI15
(lp727
g30
ag27
ag28
ag29
asI16
(lp728
g28
ag27
ag30
ag29
asI17
(lp729
g27
ag30
ag29
ag28
asI18
(lp730
g29
ag30
ag27
ag28
asI19
(lp731
g27
ag30
ag28
ag29
asI20
(lp732
g28
ag30
ag27
ag29
asI21
(lp733
g27
ag30
ag29
ag28
asI22
(lp734
g29
ag30
ag27
ag28
asI23
(lp735
g30
ag27
ag28
ag29
assg38
(dp736
I0
(lp737
I0
aI0
aI0
aI0
asI1
(lp738
I1
aI1
aI1
aI1
asI2
(lp739
I2
aI2
aI2
aI2
asI3
(lp740
I3
aI3
aI3
aI3
asI4
(lp741
I4
aI4
aI4
aI4
asI5
(lp742
I5
aI5
aI5
aI5
asI6
(lp743
I6
aI6
aI6
aI6
asI7
(lp744
I7
aI7
aI7
aI7
asI8
(lp745
I8
aI8
aI8
aI8
asI9
(lp746
I9
aI9
aI9
aI9
asI10
(lp747
I10
aI10
aI10
aI10
asI11
(lp748
I11
aI11
aI11
aI11
asI12
(lp749
I0
aI11
aI10
aI9
asI13
(lp750
I1
aI0
aI11
aI10
asI14
(lp751
I2
aI1
aI0
aI11
asI15
(lp752
I3
aI2
aI1
aI0
asI16
(lp753
I4
aI3
aI2
aI1
asI17
(lp754
I5
aI4
aI3
aI2
asI18
(lp755
I6
aI5
aI4
aI3
asI19
(lp756
I7
aI6
aI5
aI4
asI20
(lp757
I8
aI7
aI6
aI5
asI21
(lp758
I9
aI8
aI7
aI6
asI22
(lp759
I10
aI9
aI8
aI7
asI23
(lp760
I11
aI10
aI9
aI8
assg48
(dp761
I0
(lp762
I0
aI0
aI1
aI1
asI1
(lp763
I0
aI1
aI1
aI0
asI2
(lp764
I0
aI0
aI0
aI0
asI3
(lp765
I1
aI0
aI0
aI0
asI4
(lp766
I0
aI0
aI0
aI1
asI5
(lp767
I1
aI0
aI1
aI1
asI6
(lp768
I1
aI1
aI0
aI0
asI7
(lp769
I0
aI0
aI1
aI0
asI8
(lp770
I1
aI1
aI0
aI1
asI9
(lp771
I0
aI1
aI1
aI1
asI10
(lp772
I0
aI1
aI0
aI1
asI11
(lp773
I1
aI1
aI0
aI0
asI12
(lp774
I1
aI0
aI1
aI0
asI13
(lp775
I1
aI1
aI1
aI0
asI14
(lp776
I1
aI0
aI0
aI1
asI15
(lp777
I0
aI1
aI0
aI0
asI16
(lp778
I1
aI1
aI1
aI1
asI17
(lp779
I0
aI1
aI1
aI1
asI18
(lp780
I0
aI1
aI1
aI1
asI19
(lp781
I1
aI0
aI0
aI0
asI20
(lp782
I0
aI1
aI1
aI0
asI21
(lp783
I1
aI0
aI0
aI1
asI22
(lp784
I1
aI0
aI1
aI1
asI23
(lp785
I0
aI0
aI0
aI0
asssI26
(dp786
g2
(dp787
I0
(lp788
g6
ag6
ag5
ag5
asI1
(lp789
g5
ag5
ag6
ag6
asI2
(lp790
g6
ag6
ag5
ag5
asI3
(lp791
g5
ag6
ag6
ag5
asI4
(lp792
g5
ag5
ag6
ag6
asI5
(lp793
g6
ag5
ag5
ag6
asI6
(lp794
g5
ag6
ag5
ag5
asI7
(lp795
g5
ag5
ag6
ag6
asI8
(lp796
g6
ag6
ag5
ag5
asI9
(lp797
g6
ag5
ag6
ag5
asI10
(lp798
g6
ag6
ag5
ag5
asI11
(lp799
g5
ag6
ag6
ag5
asI12
(lp800
g6
ag6
ag5
ag5
asI13
(lp801
g6
ag6
ag6
ag5
asI14
(lp802
g5
ag6
ag5
ag5
asI15
(lp803
g6
ag5
ag5
ag5
asI16
(lp804
g5
ag6
ag6
ag5
asI17
(lp805
g5
ag6
ag5
ag6
asI18
(lp806
g6
ag5
ag6
ag5
asI19
(lp807
g5
ag5
ag6
ag5
asI20
(lp808
g5
ag6
ag5
ag6
asI21
(lp809
g6
ag5
ag5
ag6
asI22
(lp810
g6
ag6
ag6
ag5
asI23
(lp811
g6
ag5
ag5
ag6
asI24
(lp812
g5
ag6
ag6
ag5
asI25
(lp813
g6
ag6
ag5
ag5
assg14
(dp814
I0
(lp815
I13
aI14
aI15
aI16
asI1
(lp816
I14
aI15
aI16
aI17
asI2
(lp817
I15
aI16
aI17
aI18
asI3
(lp818
I16
aI17
aI18
aI19
asI4
(lp819
I17
aI18
aI19
aI20
asI5
(lp820
I18
aI19
aI20
aI21
asI6
(lp821
I19
aI20
aI21
aI22
asI7
(lp822
I20
aI21
aI22
aI23
asI8
(lp823
I21
aI22
aI23
aI24
asI9
(lp824
I22
aI23
aI24
aI25
asI10
(lp825
I23
aI24
aI25
aI13
asI11
(lp826
I24
aI25
aI13
aI14
asI12
(lp827
I25
aI13
aI14
aI15
asI13
(lp828
I0
aI12
aI11
aI10
asI14
(lp829
I1
aI0
aI12
aI11
asI15
(lp830
I2
aI1
aI0
aI12
asI16
(lp831
I3
aI2
aI1
aI0
asI17
(lp832
I4
aI3
aI2
aI1
asI18
(lp833
I5
aI4
aI3
aI2
asI19
(lp834
I6
aI5
aI4
aI3
asI20
(lp835
I7
aI6
aI5
aI4
asI21
(lp836
I8
aI7
aI6
aI5
asI22
(lp837
I9
aI8
aI7
aI6
asI23
(lp838
I10
aI9
aI8
aI7
asI24
(lp839
I11
aI10
aI9
aI8
asI25
(lp840
I12
aI11
aI10
aI9
assg24
(dp841
I0
(lp842
g30
ag29
ag28
ag27
asI1
(lp843
g27
ag30
ag29
ag28
asI2
(lp844
g29
ag30
ag27
ag28
asI3
(lp845
g28
ag29
ag27
ag30
asI4
(lp846
g30
ag29
ag28
ag27
asI5
(lp847
g30
ag29
ag28
ag27
asI6
(lp848
g27
ag30
ag29
ag28
asI7
(lp849
g29
ag30
ag27
ag28
asI8
(lp850
g28
ag29
ag30
ag27
asI9
(lp851
g30
ag29
ag28
ag27
asI10
(lp852
g27
ag30
ag29
ag28
asI11
(lp853
g29
ag30
ag27
ag28
asI12
(lp854
g28
ag29
ag30
ag27
asI13
(lp855
g30
ag29
ag27
ag28
asI14
(lp856
g27
ag29
ag30
ag28
asI15
(lp857
g29
ag30
ag28
ag27
asI16
(lp858
g28
ag30
ag29
ag27
asI17
(lp859
g30
ag29
ag27
ag28
asI18
(lp860
g30
ag29
ag27
ag28
asI19
(lp861
g27
ag29
ag28
ag30
asI20
(lp862
g29
ag30
ag28
ag27
asI21
(lp863
g28
ag30
ag29
ag27
asI22
(lp864
g30
ag29
ag27
ag28
asI23
(lp865
g27
ag29
ag30
ag28
asI24
(lp866
g29
ag30
ag28
ag27
asI25
(lp867
g28
ag30
ag29
ag27
assg38
(dp868
I0
(lp869
I0
aI0
aI0
aI0
asI1
(lp870
I1
aI1
aI1
aI1
asI2
(lp871
I2
aI2
aI2
aI2
asI3
(lp872
I3
aI3
aI3
aI3
asI4
(lp873
I4
aI4
aI4
aI4
asI5
(lp874
I5
aI5
aI5
aI5
asI6
(lp875
I6
aI6
aI6
aI6
asI7
(lp876
I7
aI7
aI7
aI7
asI8
(lp877
I8
aI8
aI8
aI8
asI9
(lp878
I9
aI9
aI9
aI9
asI10
(lp879
I10
aI10
aI10
aI10
asI11
(lp880
I11
aI11
aI11
aI11
asI12
(lp881
I12
aI12
aI12
aI12
asI13
(lp882
I0
aI12
aI11
aI10
asI14
(lp883
I1
aI0
aI12
aI11
asI15
(lp884
I2
aI1
aI0
aI12
asI16
(lp885
I3
aI2
aI1
aI0
asI17
(lp886
I4
aI3
aI2
aI1
asI18
(lp887
I5
aI4
aI3
aI2
asI19
(lp888
I6
aI5
aI4
aI3
asI20
(lp889
I7
aI6
aI5
aI4
asI21
(lp890
I8
aI7
aI6
aI5
asI22
(lp891
I9
aI8
aI7
aI6
asI23
(lp892
I10
aI9
aI8
aI7
asI24
(lp893
I11
aI10
aI9
aI8
asI25
(lp894
I12
aI11
aI10
aI9
assg48
(dp895
I0
(lp896
I0
aI1
aI0
aI1
asI1
(lp897
I0
aI1
aI1
aI0
asI2
(lp898
I0
aI0
aI0
aI1
asI3
(lp899
I0
aI0
aI0
aI1
asI4
(lp900
I0
aI0
aI0
aI0
asI5
(lp901
I0
aI1
aI0
aI1
asI6
(lp902
I1
aI0
aI1
aI1
asI7
(lp903
I0
aI0
aI0
aI0
asI8
(lp904
I1
aI0
aI0
aI1
asI9
(lp905
I1
aI0
aI1
aI1
asI10
(lp906
I1
aI1
aI0
aI1
asI11
(lp907
I0
aI1
aI0
aI0
asI12
(lp908
I0
aI1
aI0
aI1
asI13
(lp909
I1
aI0
aI1
aI0
asI14
(lp910
I1
aI0
aI1
aI1
asI15
(lp911
I1
aI0
aI1
aI0
asI16
(lp912
I1
aI1
aI0
aI0
asI17
(lp913
I1
aI1
aI1
aI1
asI18
(lp914
I1
aI1
aI1
aI0
asI19
(lp915
I0
aI0
aI1
aI0
asI20
(lp916
I1
aI1
aI1
aI1
asI21
(lp917
I0
aI1
aI0
aI0
asI22
(lp918
I0
aI1
aI1
aI0
asI23
(lp919
I0
aI1
aI1
aI1
asI24
(lp920
I1
aI0
aI0
aI0
asI25
(lp921
I1
aI0
aI1
aI0
asss.