(dp0
I8
(dp1
S'pays'
p2
(dp3
I0
(lp4
S'H'
p5
ag5
aS'L'
p6
ag6
asI1
(lp7
g5
ag6
ag6
ag5
asI2
(lp8
g5
ag5
ag6
ag6
asI3
(lp9
g5
ag6
ag6
ag5
asI4
(lp10
g5
ag6
ag6
ag5
asI5
(lp11
g5
ag5
ag6
ag6
asI6
(lp12
g5
ag6
ag6
ag5
asI7
(lp13
g5
ag5
ag6
ag6
assS'pairs'
p14
(dp15
I0
(lp16
I4
aI5
aI6
aI7
asI1
(lp17
I5
aI6
aI7
aI4
asI2
(lp18
I6
aI7
aI4
aI5
asI3
(lp19
I7
aI4
aI5
aI6
asI4
(lp20
I0
aI3
aI2
aI1
asI5
(lp21
I1
aI0
aI3
aI2
asI6
(lp22
I2
aI1
aI0
aI3
asI7
(lp23
I3
aI2
aI1
aI0
assS'games'
p24
(dp25
I0
(lp26
S'BO'
p27
aS'SH'
p28
aS'SD'
p29
aS'PD'
p30
asI1
(lp31
g30
ag27
ag28
ag29
asI2
(lp32
g28
ag27
ag30
ag29
asI3
(lp33
g29
ag28
ag27
ag30
asI4
(lp34
g27
ag28
ag30
ag29
asI5
(lp35
g30
ag28
ag27
ag29
asI6
(lp36
g28
ag27
ag29
ag30
asI7
(lp37
g29
ag27
ag28
ag30
assS'groups'
p38
(dp39
I0
(lp40
I0
aI0
aI0
aI0
asI1
(lp41
I1
aI1
aI1
aI1
asI2
(lp42
I2
aI2
aI2
aI2
asI3
(lp43
I3
aI3
aI3
aI3
asI4
(lp44
I0
aI3
aI2
aI1
asI5
(lp45
I1
aI0
aI3
aI2
asI6
(lp46
I2
aI1
aI0
aI3
asI7
(lp47
I3
aI2
aI1
aI0
assS'roles'
p48
(dp49
I0
(lp50
I1
aI1
aI0
aI1
asI1
(lp51
I1
aI0
aI0
aI1
asI2
(lp52
I0
aI0
aI0
aI0
asI3
(lp53
I0
aI0
aI0
aI0
asI4
(lp54
I0
aI1
aI1
aI0
asI5
(lp55
I0
aI0
aI1
aI1
asI6
(lp56
I1
aI1
aI1
aI1
asI7
(lp57
I1
aI1
aI1
aI0
asssI16
(dp58
g2
(dp59
I0
(lp60
g5
ag6
ag5
ag6
asI1
(lp61
g5
ag6
ag6
ag5
asI2
(lp62
g6
ag5
ag5
ag6
asI3
(lp63
g5
ag6
ag5
ag6
asI4
(lp64
g6
ag5
ag6
ag5
asI5
(lp65
g6
ag5
ag5
ag6
asI6
(lp66
g5
ag6
ag6
ag5
asI7
(lp67
g6
ag5
ag6
ag5
asI8
(lp68
g5
ag5
ag6
ag6
asI9
(lp69
g5
ag6
ag6
ag5
asI10
(lp70
g6
ag6
ag5
ag5
asI11
(lp71
g5
ag5
ag6
ag6
asI12
(lp72
g6
ag6
ag5
ag5
asI13
(lp73
g6
ag5
ag5
ag6
asI14
(lp74
g5
ag5
ag6
ag6
asI15
(lp75
g6
ag6
ag5
ag5
assg14
(dp76
I0
(lp77
I8
aI9
aI10
aI11
asI1
(lp78
I9
aI10
aI11
aI12
asI2
(lp79
I10
aI11
aI12
aI13
asI3
(lp80
I11
aI12
aI13
aI14
asI4
(lp81
I12
aI13
aI14
aI15
asI5
(lp82
I13
aI14
aI15
aI8
asI6
(lp83
I14
aI15
aI8
aI9
asI7
(lp84
I15
aI8
aI9
aI10
asI8
(lp85
I0
aI7
aI6
aI5
asI9
(lp86
I1
aI0
aI7
aI6
asI10
(lp87
I2
aI1
aI0
aI7
asI11
(lp88
I3
aI2
aI1
aI0
asI12
(lp89
I4
aI3
aI2
aI1
asI13
(lp90
I5
aI4
aI3
aI2
asI14
(lp91
I6
aI5
aI4
aI3
asI15
(lp92
I7
aI6
aI5
aI4
assg24
(dp93
I0
(lp94
g28
ag30
ag29
ag27
asI1
(lp95
g29
ag30
ag28
ag27
asI2
(lp96
g27
ag29
ag30
ag28
asI3
(lp97
g30
ag29
ag27
ag28
asI4
(lp98
g28
ag30
ag29
ag27
asI5
(lp99
g29
ag30
ag28
ag27
asI6
(lp100
g27
ag29
ag30
ag28
asI7
(lp101
g30
ag29
ag27
ag28
asI8
(lp102
g28
ag29
ag30
ag27
asI9
(lp103
g29
ag30
ag27
ag28
asI10
(lp104
g27
ag30
ag29
ag28
asI11
(lp105
g30
ag29
ag28
ag27
asI12
(lp106
g28
ag29
ag30
ag27
asI13
(lp107
g29
ag30
ag27
ag28
asI14
(lp108
g27
ag30
ag29
ag28
asI15
(lp109
g30
ag29
ag28
ag27
assg38
(dp110
I0
(lp111
I0
aI0
aI0
aI0
asI1
(lp112
I1
aI1
aI1
aI1
asI2
(lp113
I2
aI2
aI2
aI2
asI3
(lp114
I3
aI3
aI3
aI3
asI4
(lp115
I4
aI4
aI4
aI4
asI5
(lp116
I5
aI5
aI5
aI5
asI6
(lp117
I6
aI6
aI6
aI6
asI7
(lp118
I7
aI7
aI7
aI7
asI8
(lp119
I0
aI7
aI6
aI5
asI9
(lp120
I1
aI0
aI7
aI6
asI10
(lp121
I2
aI1
aI0
aI7
asI11
(lp122
I3
aI2
aI1
aI0
asI12
(lp123
I4
aI3
aI2
aI1
asI13
(lp124
I5
aI4
aI3
aI2
asI14
(lp125
I6
aI5
aI4
aI3
asI15
(lp126
I7
aI6
aI5
aI4
assg48
(dp127
I0
(lp128
I1
aI0
aI1
aI1
asI1
(lp129
I1
aI1
aI1
aI1
asI2
(lp130
I1
aI0
aI1
aI0
asI3
(lp131
I1
aI0
aI1
aI0
asI4
(lp132
I0
aI1
aI0
aI0
asI5
(lp133
I0
aI1
aI1
aI0
asI6
(lp134
I0
aI0
aI1
aI1
asI7
(lp135
I0
aI0
aI1
aI0
asI8
(lp136
I0
aI1
aI0
aI1
asI9
(lp137
I0
aI1
aI0
aI0
asI10
(lp138
I0
aI0
aI0
aI1
asI11
(lp139
I0
aI1
aI0
aI0
asI12
(lp140
I1
aI1
aI0
aI0
asI13
(lp141
I1
aI0
aI0
aI1
asI14
(lp142
I1
aI0
aI1
aI1
asI15
(lp143
I1
aI1
aI0
aI1
asssI10
(dp144
g2
(dp145
I0
(lp146
g6
ag5
ag5
ag6
asI1
(lp147
g6
ag6
ag5
ag5
asI2
(lp148
g6
ag5
ag6
ag5
asI3
(lp149
g6
ag5
ag5
ag6
asI4
(lp150
g6
ag6
ag5
ag5
asI5
(lp151
g6
ag6
ag5
ag5
asI6
(lp152
g6
ag5
ag5
ag6
asI7
(lp153
g6
ag6
ag5
ag5
asI8
(lp154
g6
ag5
ag5
ag6
asI9
(lp155
g6
ag5
ag6
ag5
assg14
(dp156
I0
(lp157
I5
aI6
aI7
aI8
asI1
(lp158
I6
aI7
aI8
aI9
asI2
(lp159
I7
aI8
aI9
aI5
asI3
(lp160
I8
aI9
aI5
aI6
asI4
(lp161
I9
aI5
aI6
aI7
asI5
(lp162
I0
aI4
aI3
aI2
asI6
(lp163
I1
aI0
aI4
aI3
asI7
(lp164
I2
aI1
aI0
aI4
asI8
(lp165
I3
aI2
aI1
aI0
asI9
(lp166
I4
aI3
aI2
aI1
assg24
(dp167
I0
(lp168
g28
ag30
ag27
ag29
asI1
(lp169
g27
ag30
ag28
ag29
asI2
(lp170
g29
ag27
ag28
ag30
asI3
(lp171
g30
ag27
ag29
ag28
asI4
(lp172
g30
ag27
ag29
ag28
asI5
(lp173
g28
ag27
ag29
ag30
asI6
(lp174
g27
ag30
ag29
ag28
asI7
(lp175
g29
ag30
ag27
ag28
asI8
(lp176
g30
ag27
ag28
ag29
asI9
(lp177
g30
ag27
ag28
ag29
assg38
(dp178
I0
(lp179
I0
aI0
aI0
aI0
asI1
(lp180
I1
aI1
aI1
aI1
asI2
(lp181
I2
aI2
aI2
aI2
asI3
(lp182
I3
aI3
aI3
aI3
asI4
(lp183
I4
aI4
aI4
aI4
asI5
(lp184
I0
aI4
aI3
aI2
asI6
(lp185
I1
aI0
aI4
aI3
asI7
(lp186
I2
aI1
aI0
aI4
asI8
(lp187
I3
aI2
aI1
aI0
asI9
(lp188
I4
aI3
aI2
aI1
assg48
(dp189
I0
(lp190
I1
aI1
aI1
aI0
asI1
(lp191
I1
aI0
aI0
aI1
asI2
(lp192
I0
aI0
aI0
aI0
asI3
(lp193
I0
aI0
aI0
aI1
asI4
(lp194
I1
aI0
aI1
aI0
asI5
(lp195
I0
aI1
aI1
aI1
asI6
(lp196
I0
aI0
aI0
aI0
asI7
(lp197
I1
aI1
aI0
aI1
asI8
(lp198
I1
aI1
aI1
aI1
asI9
(lp199
I0
aI1
aI1
aI0
asssI12
(dp200
g2
(dp201
I0
(lp202
g6
ag5
ag6
ag5
asI1
(lp203
g6
ag6
ag5
ag5
asI2
(lp204
g5
ag6
ag6
ag5
asI3
(lp205
g6
ag5
ag6
ag5
asI4
(lp206
g6
ag5
ag6
ag5
asI5
(lp207
g6
ag5
ag6
ag5
asI6
(lp208
g6
ag5
ag6
ag5
asI7
(lp209
g6
ag5
ag6
ag5
asI8
(lp210
g5
ag6
ag6
ag5
asI9
(lp211
g6
ag6
ag5
ag5
asI10
(lp212
g6
ag5
ag6
ag5
asI11
(lp213
g6
ag5
ag6
ag5
assg14
(dp214
I0
(lp215
I6
aI7
aI8
aI9
asI1
(lp216
I7
aI8
aI9
aI10
asI2
(lp217
I8
aI9
aI10
aI11
asI3
(lp218
I9
aI10
aI11
aI6
asI4
(lp219
I10
aI11
aI6
aI7
asI5
(lp220
I11
aI6
aI7
aI8
asI6
(lp221
I0
aI5
aI4
aI3
asI7
(lp222
I1
aI0
aI5
aI4
asI8
(lp223
I2
aI1
aI0
aI5
asI9
(lp224
I3
aI2
aI1
aI0
asI10
(lp225
I4
aI3
aI2
aI1
asI11
(lp226
I5
aI4
aI3
aI2
assg24
(dp227
I0
(lp228
g30
ag29
ag28
ag27
asI1
(lp229
g30
ag29
ag28
ag27
asI2
(lp230
g27
ag30
ag28
ag29
asI3
(lp231
g29
ag30
ag27
ag28
asI4
(lp232
g29
ag30
ag27
ag28
asI5
(lp233
g28
ag29
ag27
ag30
asI6
(lp234
g30
ag29
ag27
ag28
asI7
(lp235
g30
ag29
ag27
ag28
asI8
(lp236
g27
ag29
ag28
ag30
asI9
(lp237
g29
ag30
ag28
ag27
asI10
(lp238
g29
ag30
ag28
ag27
asI11
(lp239
g28
ag30
ag27
ag29
assg38
(dp240
I0
(lp241
I0
aI0
aI0
aI0
asI1
(lp242
I1
aI1
aI1
aI1
asI2
(lp243
I2
aI2
aI2
aI2
asI3
(lp244
I3
aI3
aI3
aI3
asI4
(lp245
I4
aI4
aI4
aI4
asI5
(lp246
I5
aI5
aI5
aI5
asI6
(lp247
I0
aI5
aI4
aI3
asI7
(lp248
I1
aI0
aI5
aI4
asI8
(lp249
I2
aI1
aI0
aI5
asI9
(lp250
I3
aI2
aI1
aI0
asI10
(lp251
I4
aI3
aI2
aI1
asI11
(lp252
I5
aI4
aI3
aI2
assg48
(dp253
I0
(lp254
I1
aI0
aI0
aI1
asI1
(lp255
I0
aI0
aI1
aI0
asI2
(lp256
I1
aI1
aI0
aI1
asI3
(lp257
I0
aI0
aI0
aI0
asI4
(lp258
I0
aI0
aI0
aI0
asI5
(lp259
I1
aI1
aI0
aI1
asI6
(lp260
I0
aI0
aI1
aI1
asI7
(lp261
I1
aI1
aI1
aI1
asI8
(lp262
I0
aI1
aI1
aI0
asI9
(lp263
I1
aI0
aI0
aI0
asI10
(lp264
I1
aI1
aI1
aI1
asI11
(lp265
I0
aI1
aI1
aI0
asssI14
(dp266
g2
(dp267
I0
(lp268
g5
ag5
ag6
ag6
asI1
(lp269
g6
ag5
ag6
ag5
asI2
(lp270
g6
ag5
ag6
ag5
asI3
(lp271
g5
ag5
ag6
ag6
asI4
(lp272
g6
ag6
ag5
ag5
asI5
(lp273
g5
ag5
ag6
ag6
asI6
(lp274
g6
ag6
ag5
ag5
asI7
(lp275
g5
ag6
ag6
ag5
asI8
(lp276
g6
ag5
ag5
ag6
asI9
(lp277
g6
ag5
ag6
ag5
asI10
(lp278
g5
ag5
ag6
ag6
asI11
(lp279
g6
ag5
ag6
ag5
asI12
(lp280
g5
ag6
ag6
ag5
asI13
(lp281
g6
ag5
ag5
ag6
assg14
(dp282
I0
(lp283
I7
aI8
aI9
aI10
asI1
(lp284
I8
aI9
aI10
aI11
asI2
(lp285
I9
aI10
aI11
aI12
asI3
(lp286
I10
aI11
aI12
aI13
asI4
(lp287
I11
aI12
aI13
aI7
asI5
(lp288
I12
aI13
aI7
aI8
asI6
(lp289
I13
aI7
aI8
aI9
asI7
(lp290
I0
aI6
aI5
aI4
asI8
(lp291
I1
aI0
aI6
aI5
asI9
(lp292
I2
aI1
aI0
aI6
asI10
(lp293
I3
aI2
aI1
aI0
asI11
(lp294
I4
aI3
aI2
aI1
asI12
(lp295
I5
aI4
aI3
aI2
asI13
(lp296
I6
aI5
aI4
aI3
assg24
(dp297
I0
(lp298
g27
ag30
ag28
ag29
asI1
(lp299
g29
ag30
ag27
ag28
asI2
(lp300
g27
ag30
ag29
ag28
asI3
(lp301
g28
ag27
ag30
ag29
asI4
(lp302
g30
ag27
ag28
ag29
asI5
(lp303
g29
ag27
ag30
ag28
asI6
(lp304
g30
ag28
ag27
ag29
asI7
(lp305
g27
ag28
ag30
ag29
asI8
(lp306
g29
ag30
ag27
ag28
asI9
(lp307
g27
ag30
ag28
ag29
asI10
(lp308
g28
ag30
ag27
ag29
asI11
(lp309
g30
ag27
ag29
ag28
asI12
(lp310
g29
ag27
ag30
ag28
asI13
(lp311
g30
ag27
ag28
ag29
assg38
(dp312
I0
(lp313
I0
aI0
aI0
aI0
asI1
(lp314
I1
aI1
aI1
aI1
asI2
(lp315
I2
aI2
aI2
aI2
asI3
(lp316
I3
aI3
aI3
aI3
asI4
(lp317
I4
aI4
aI4
aI4
asI5
(lp318
I5
aI5
aI5
aI5
asI6
(lp319
I6
aI6
aI6
aI6
asI7
(lp320
I0
aI6
aI5
aI4
asI8
(lp321
I1
aI0
aI6
aI5
asI9
(lp322
I2
aI1
aI0
aI6
asI10
(lp323
I3
aI2
aI1
aI0
asI11
(lp324
I4
aI3
aI2
aI1
asI12
(lp325
I5
aI4
aI3
aI2
asI13
(lp326
I6
aI5
aI4
aI3
assg48
(dp327
I0
(lp328
I1
aI0
aI1
aI0
asI1
(lp329
I1
aI0
aI0
aI0
asI2
(lp330
I1
aI0
aI1
aI0
asI3
(lp331
I1
aI1
aI1
aI0
asI4
(lp332
I1
aI1
aI0
aI1
asI5
(lp333
I0
aI1
aI0
aI1
asI6
(lp334
I1
aI0
aI0
aI0
asI7
(lp335
I0
aI1
aI1
aI0
asI8
(lp336
I0
aI1
aI1
aI0
asI9
(lp337
I0
aI1
aI0
aI1
asI10
(lp338
I0
aI1
aI1
aI1
asI11
(lp339
I0
aI0
aI0
aI1
asI12
(lp340
I1
aI0
aI0
aI1
asI13
(lp341
I0
aI0
aI1
aI1
asss.